 serverplugin_empty

 Timestamp is 59c40c01 (Thu Sep 21 21:59:13 2017)

 Preferred load address is 10000000

 Start         Length     Name                   Class
 0001:00000000 0003e59aH .text                   CODE
 0001:0003e5a0 000005eeH .text$x                 CODE
 0001:0003eb90 00000333H .text$yc                CODE
 0001:0003eed0 00000185H .text$yd                CODE
 0002:00000000 00000178H .idata$5                DATA
 0002:00000178 00000004H .CRT$XCA                DATA
 0002:0000017c 00000048H .CRT$XCU                DATA
 0002:000001c4 00000004H .CRT$XCZ                DATA
 0002:000001c8 00000004H .CRT$XIA                DATA
 0002:000001cc 00000014H .CRT$XIC                DATA
 0002:000001e0 00000004H .CRT$XIZ                DATA
 0002:000001e4 00000004H .CRT$XPA                DATA
 0002:000001e8 00000004H .CRT$XPX                DATA
 0002:000001ec 00000004H .CRT$XPXA               DATA
 0002:000001f0 00000004H .CRT$XPZ                DATA
 0002:000001f4 00000004H .CRT$XTA                DATA
 0002:000001f8 00000004H .CRT$XTZ                DATA
 0002:00000200 0000c2b8H .rdata                  DATA
 0002:0000c4b8 0000005fH .rdata$debug            DATA
 0002:0000c518 00000604H .rdata$r                DATA
 0002:0000cb20 00000088H .rdata$sxdata           DATA
 0002:0000cba8 00000004H .rtc$IAA                DATA
 0002:0000cbac 00000004H .rtc$IZZ                DATA
 0002:0000cbb0 00000004H .rtc$TAA                DATA
 0002:0000cbb4 00000004H .rtc$TZZ                DATA
 0002:0000cbb8 00000d0cH .xdata$x                DATA
 0002:0000d8c4 0000003cH .idata$2                DATA
 0002:0000d900 00000014H .idata$3                DATA
 0002:0000d914 00000178H .idata$4                DATA
 0002:0000da8c 000006b0H .idata$6                DATA
 0002:0000e140 00000059H .edata                  DATA
 0003:00000000 00001820H .data                   DATA
 0003:00001820 0000ce7cH .bss                    DATA

  Address         Publics by Value              Rva+Base       Lib:Object

 0000:00000000       __except_list              00000000     <absolute>
 0000:00000022       ___safe_se_handler_count   00000022     <absolute>
 0000:00000000       ___ImageBase               10000000     <linker-defined>
 0001:00000000       ?strrchr@@YAPADPADH@Z      10001000 f i memoverride.obj
 0001:00000010       ?MakeModuleFileName@@YAPBDXZ 10001010 f   memoverride.obj
 0001:000001e0       _malloc                    100011e0 f   memoverride.obj
 0001:000001f0       _free                      100011f0 f   memoverride.obj
 0001:00000210       _realloc                   10001210 f   memoverride.obj
 0001:00000230       _calloc                    10001230 f   memoverride.obj
 0001:00000260       __malloc_base              10001260 f   memoverride.obj
 0001:00000270       __free_base                10001270 f   memoverride.obj
 0001:00000290       __realloc_base             10001290 f   memoverride.obj
 0001:000002b0       __realloc_crt              100012b0 f   memoverride.obj
 0001:000002d0       __recalloc_crt             100012d0 f   memoverride.obj
 0001:00000300       __recalloc                 10001300 f   memoverride.obj
 0001:00000330       __malloc_crt               10001330 f   memoverride.obj
 0001:00000340       __calloc_crt               10001340 f   memoverride.obj
 0001:00000370       __heapchk                  10001370 f   memoverride.obj
 0001:00000380       __heapmin                  10001380 f   memoverride.obj
 0001:00000390       __msize                    10001390 f   memoverride.obj
 0001:000003b0       _msize                     100013b0 f   memoverride.obj
 0001:000003d0       __heap_alloc               100013d0 f   memoverride.obj
 0001:000003e0       __nh_malloc                100013e0 f   memoverride.obj
 0001:000003f0       __expand                   100013f0 f   memoverride.obj
 0001:00000400       __get_sbh_threshold        10001400 f   memoverride.obj
 0001:00000410       __set_sbh_threshold        10001410 f   memoverride.obj
 0001:00000420       __heapadd                  10001420 f   memoverride.obj
 0001:00000430       __heapset                  10001430 f   memoverride.obj
 0001:00000440       __heapused                 10001440 f   memoverride.obj
 0001:00000450       __heapwalk                 10001450 f   memoverride.obj
 0001:00000460       _malloc_db                 10001460 f   memoverride.obj
 0001:00000480       _free_db                   10001480 f   memoverride.obj
 0001:000004a0       _realloc_db                100014a0 f   memoverride.obj
 0001:000004d0       __heap_init                100014d0 f   memoverride.obj
 0001:000004e0       __heap_term                100014e0 f   memoverride.obj
 0001:000004f0       ??2@YAPAXI@Z               100014f0 f   memoverride.obj
 0001:00000500       ??2@YAPAXIHPBDH@Z          10001500 f   memoverride.obj
 0001:00000520       ??3@YAXPAX@Z               10001520 f   memoverride.obj
 0001:00000540       ??_U@YAPAXI@Z              10001540 f   memoverride.obj
 0001:00000550       ??_U@YAPAXIHPBDH@Z         10001550 f   memoverride.obj
 0001:00000570       ??_V@YAXPAX@Z              10001570 f   memoverride.obj
 0001:00000590       ??0CAttibCRT@@QAE@H@Z      10001590 f i memoverride.obj
 0001:000005c0       ??1CAttibCRT@@QAE@XZ       100015c0 f i memoverride.obj
 0001:000005e0       __nh_malloc_dbg            100015e0 f   memoverride.obj
 0001:00000640       __malloc_dbg               10001640 f   memoverride.obj
 0001:000006a0       __calloc_dbg               100016a0 f   memoverride.obj
 0001:00000710       __realloc_dbg              10001710 f   memoverride.obj
 0001:00000770       __expand_dbg               10001770 f   memoverride.obj
 0001:00000780       __free_dbg                 10001780 f   memoverride.obj
 0001:000007d0       __msize_dbg                100017d0 f   memoverride.obj
 0001:000007f0       __aligned_malloc_base      100017f0 f   memoverride.obj
 0001:00000800       __aligned_realloc_base     10001800 f   memoverride.obj
 0001:00000820       __aligned_free_base        10001820 f   memoverride.obj
 0001:00000840       __aligned_malloc           10001840 f   memoverride.obj
 0001:00000850       __aligned_free             10001850 f   memoverride.obj
 0001:00000870       __aligned_realloc          10001870 f   memoverride.obj
 0001:00000890       __aligned_offset_malloc    10001890 f   memoverride.obj
 0001:000008a0       __aligned_offset_realloc   100018a0 f   memoverride.obj
 0001:000008c0       __CrtDumpMemoryLeaks       100018c0 f   memoverride.obj
 0001:000008d0       __CrtSetDumpClient         100018d0 f   memoverride.obj
 0001:000008f0       __CrtSetDbgFlag            100018f0 f   memoverride.obj
 0001:00000910       ___p__crtDbgFlag           10001910 f   memoverride.obj
 0001:00000920       ___p__crtBreakAlloc        10001920 f   memoverride.obj
 0001:00000930       __CrtSetDbgBlockType       10001930 f   memoverride.obj
 0001:00000940       __CrtSetAllocHook          10001940 f   memoverride.obj
 0001:00000950       __CrtSetBreakAlloc         10001950 f   memoverride.obj
 0001:00000970       __CrtIsValidHeapPointer    10001970 f   memoverride.obj
 0001:00000990       __CrtIsValidPointer        10001990 f   memoverride.obj
 0001:000009b0       __CrtCheckMemory           100019b0 f   memoverride.obj
 0001:000009c0       __CrtIsMemoryBlock         100019c0 f   memoverride.obj
 0001:000009d0       __CrtMemDifference         100019d0 f   memoverride.obj
 0001:000009e0       __CrtMemDumpStatistics     100019e0 f   memoverride.obj
 0001:000009f0       __CrtMemCheckpoint         100019f0 f   memoverride.obj
 0001:00000a10       __CrtMemDumpAllObjectsSince 10001a10 f   memoverride.obj
 0001:00000a20       __CrtDoForAllClientObjects 10001a20 f   memoverride.obj
 0001:00000a30       __CrtSetReportMode         10001a30 f   memoverride.obj
 0001:00000a50       __CrtSetReportFile         10001a50 f   memoverride.obj
 0001:00000a70       __CrtSetReportHook         10001a70 f   memoverride.obj
 0001:00000a90       __CrtDbgReport             10001a90 f   memoverride.obj
 0001:00000ae0       __CrtSetCheckCount         10001ae0 f   memoverride.obj
 0001:00000af0       __CrtGetCheckCount         10001af0 f   memoverride.obj
 0001:00000b00       __aligned_offset_recalloc_dbg 10001b00 f   memoverride.obj
 0001:00000b30       __aligned_recalloc         10001b30 f   memoverride.obj
 0001:00000b60       __aligned_recalloc_dbg     10001b60 f   memoverride.obj
 0001:00000b90       __aligned_offset_recalloc  10001b90 f   memoverride.obj
 0001:00000bc0       __recalloc_dbg             10001bc0 f   memoverride.obj
 0001:00000bd0       __CrtGetReportHook         10001bd0 f   memoverride.obj
 0001:00000be0       __CrtDbgReportW            10001be0 f   memoverride.obj
 0001:00000bf0       __CrtReportBlockType       10001bf0 f   memoverride.obj
 0001:00000c00       __heap_alloc_base          10001c00 f   memoverride.obj
 0001:00000c10       __heap_alloc_dbg           10001c10 f   memoverride.obj
 0001:00000c20       __free_nolock              10001c20 f   memoverride.obj
 0001:00000c40       __free_dbg_nolock          10001c40 f   memoverride.obj
 0001:00000c60       __CrtGetAllocHook          10001c60 f   memoverride.obj
 0001:00000c70       __CrtGetDumpClient         10001c70 f   memoverride.obj
 0001:00000c80       __aligned_malloc_dbg       10001c80 f   memoverride.obj
 0001:00000c90       __aligned_realloc_dbg      10001c90 f   memoverride.obj
 0001:00000cb0       __aligned_offset_malloc_dbg 10001cb0 f   memoverride.obj
 0001:00000cc0       __aligned_offset_malloc_base 10001cc0 f   memoverride.obj
 0001:00000cd0       __aligned_offset_realloc_dbg 10001cd0 f   memoverride.obj
 0001:00000cf0       __aligned_free_dbg         10001cf0 f   memoverride.obj
 0001:00000d10       __CrtSetDebugFillThreshold 10001d10 f   memoverride.obj
 0001:00000d20       __strdup                   10001d20 f   memoverride.obj
 0001:00000d30       __wcsdup_dbg               10001d30 f   memoverride.obj
 0001:00000d40       __wcsdup                   10001d40 f   memoverride.obj
 0001:00000d50       ??2@YAPAXIPAX@Z            10001d50 f i serverplugin_bot.obj
 0001:00000d60       ??3@YAXPAX0@Z              10001d60 f i serverplugin_bot.obj
 0001:00000d70       _fabsf                     10001d70 f i serverplugin_bot.obj
 0001:00000d80       ?fabs@@YAMM@Z              10001d80 f i serverplugin_bot.obj
 0001:00000d90       ?UtlMemory_CalcNewAllocationCount@@YAHHHHH@Z 10001d90 f i serverplugin_bot.obj
 0001:00000dd0       ?V_memset@@YAXPAXHH@Z      10001dd0 f i serverplugin_bot.obj
 0001:00000de0       ?V_memmove@@YAXPAXPBXH@Z   10001de0 f i serverplugin_bot.obj
 0001:00000df0       ?V_strlen@@YAHPBD@Z        10001df0 f i serverplugin_bot.obj
 0001:00000e10       ??0Vector2D@@QAE@MM@Z      10001e10 f i serverplugin_bot.obj
 0001:00000e30       ?LengthSqr@Vector@@QBEMXZ  10001e30 f i serverplugin_bot.obj
 0001:00000e60       ??0Vector@@QAE@XZ          10001e60 f i serverplugin_bot.obj
 0001:00000e70       ??0Vector@@QAE@MMM@Z       10001e70 f i serverplugin_bot.obj
 0001:00000e90       ?Random@Vector@@QAEXMM@Z   10001e90 f i serverplugin_bot.obj
 0001:00000f00       ??4Vector@@QAEAAV0@ABV0@@Z 10001f00 f i serverplugin_bot.obj
 0001:00000f20       ??XVector@@QAEAAV0@M@Z     10001f20 f i serverplugin_bot.obj
 0001:00000f50       ?VectorAdd@@YAXABVVector@@0AAV1@@Z 10001f50 f i serverplugin_bot.obj
 0001:00000f80       ?VectorSubtract@@YAXABVVector@@0AAV1@@Z 10001f80 f i serverplugin_bot.obj
 0001:00000fb0       ?VectorMultiply@@YAXABVVector@@MAAV1@@Z 10001fb0 f i serverplugin_bot.obj
 0001:00000fe0       ??_H@YGXPAXIHP6EPAX0@Z@Z   10001fe0 f i serverplugin_bot.obj
 0001:00001010       ??HVector@@QBE?AV0@ABV0@@Z 10002010 f i serverplugin_bot.obj
 0001:00001040       ??DVector@@QBE?AV0@M@Z     10002040 f i serverplugin_bot.obj
 0001:00001070       ??0QAngle@@QAE@XZ          10002070 f i serverplugin_bot.obj
 0001:00001080       ??0QAngle@@QAE@MMM@Z       10002080 f i serverplugin_bot.obj
 0001:000010a0       ?Init@QAngle@@QAEXMMM@Z    100020a0 f i serverplugin_bot.obj
 0001:000010c0       ?RandomAngle@@YA?AVQAngle@@MM@Z 100020c0 f i serverplugin_bot.obj
 0001:00001140       ??4QAngle@@QAEAAV0@ABV0@@Z 10002140 f i serverplugin_bot.obj
 0001:00001160       ??AQAngle@@QAEAAMH@Z       10002160 f i serverplugin_bot.obj
 0001:00001170       ??YQAngle@@QAEAAV0@ABV0@@Z 10002170 f i serverplugin_bot.obj
 0001:000011a0       ?GetFloat@ConVar@@QBEMXZ   100021a0 f i serverplugin_bot.obj
 0001:000011b0       ?GetInt@ConVar@@QBEHXZ     100021b0 f i serverplugin_bot.obj
 0001:000011c0       ?GetString@ConVar@@QBEPBDXZ 100021c0 f i serverplugin_bot.obj
 0001:000011e0       ??0cplane_t@@QAE@XZ        100021e0 f i serverplugin_bot.obj
 0001:000011f0       ?Init@Ray_t@@QAEXABVVector@@000@Z 100021f0 f i serverplugin_bot.obj
 0001:00001330       ?IsFree@CBaseEdict@@QBE_NXZ 10002330 f i serverplugin_bot.obj
 0001:00001340       ?GetUnknown@CBaseEdict@@QAEPAVIServerUnknown@@XZ 10002340 f i serverplugin_bot.obj
 0001:00001350       ??1CBotCmd@@UAE@XZ         10002350 f i serverplugin_bot.obj
 0001:00001360       ?Reset@CBotCmd@@QAEXXZ     10002360 f i serverplugin_bot.obj
 0001:000013a0       ??4CBotCmd@@QAEAAV0@ABV0@@Z 100023a0 f i serverplugin_bot.obj
 0001:00001420       ??_GCBotCmd@@UAEPAXI@Z     10002420 f i serverplugin_bot.obj
 0001:00001420       ??_ECBotCmd@@UAEPAXI@Z     10002420 f i serverplugin_bot.obj
 0001:00001450       ??0CPluginBot@@QAE@XZ      10002450 f i serverplugin_bot.obj
 0001:00001470       ?Bot_RunMimicCommand@@YA_NAAVCBotCmd@@@Z 10002470 f   serverplugin_bot.obj
 0001:00001500       ?Bot_UpdateStrafing@@YAXPAVCPluginBot@@AAVCBotCmd@@@Z 10002500 f   serverplugin_bot.obj
 0001:000015a0       ??0Ray_t@@QAE@XZ           100025a0 f i serverplugin_bot.obj
 0001:000015b0       ??0ITraceFilter@@QAE@XZ    100025b0 f i serverplugin_bot.obj
 0001:000015c0       ?Bot_HandleSendCmd@@YAXPAVCPluginBot@@@Z 100025c0 f   serverplugin_bot.obj
 0001:00001640       ?Bot_SetForwardMovement@@YAXPAVCPluginBot@@AAVCBotCmd@@@Z 10002640 f   serverplugin_bot.obj
 0001:000016d0       ?Bot_HandleRespawn@@YAXPAVCPluginBot@@AAVCBotCmd@@@Z 100026d0 f   serverplugin_bot.obj
 0001:00001740       ?Count@?$CUtlVector@VCPluginBot@@V?$CUtlMemory@VCPluginBot@@@@@@QBEHXZ 10002740 f i serverplugin_bot.obj
 0001:00001750       ?Base@?$CUtlMemory@VCPluginBot@@@@QAEPAVCPluginBot@@XZ 10002750 f i serverplugin_bot.obj
 0001:00001760       ??$Destruct@VCPluginBot@@@@YAXPAVCPluginBot@@@Z 10002760 f i serverplugin_bot.obj
 0001:00001770       ?ValidateGrowSize@?$CUtlMemory@VCPluginBot@@@@IAEXXZ 10002770 f i serverplugin_bot.obj
 0001:00001780       ??$Construct@VCPluginBot@@@@YAXPAVCPluginBot@@@Z 10002780 f i serverplugin_bot.obj
 0001:000017a0       ?NumAllocated@?$CUtlMemory@VCPluginBot@@@@QBEHXZ 100027a0 f i serverplugin_bot.obj
 0001:000017b0       ?IsExternallyAllocated@?$CUtlMemory@VCPluginBot@@@@QBE_NXZ 100027b0 f i serverplugin_bot.obj
 0001:000017c0       ?GetBool@ConVar@@QBE_NXZ   100027c0 f i serverplugin_bot.obj
 0001:000017d0       ??0CBaseTrace@@QAE@XZ      100027d0 f i serverplugin_bot.obj
 0001:000017e0       ??0CGameTrace@@QAE@XZ      100027e0 f i serverplugin_bot.obj
 0001:000017f0       ??0CBotCmd@@QAE@XZ         100027f0 f i serverplugin_bot.obj
 0001:00001840       ??0CTraceFilterWorldAndPropsOnly@@QAE@XZ 10002840 f i serverplugin_bot.obj
 0001:00001850       ?ShouldHitEntity@CTraceFilterWorldAndPropsOnly@@UAE_NPAVIHandleEntity@@H@Z 10002850 f i serverplugin_bot.obj
 0001:00001860       ?GetTraceType@CTraceFilterWorldAndPropsOnly@@UBE?AW4TraceType_t@@XZ 10002860 f i serverplugin_bot.obj
 0001:00001870       ?Bot_FlipOut@@YAXPAVCPluginBot@@AAVCBotCmd@@@Z 10002870 f   serverplugin_bot.obj
 0001:000019c0       ?Bot_ForceFireWeapon@@YAXPAVCPluginBot@@AAVCBotCmd@@@Z 100029c0 f   serverplugin_bot.obj
 0001:00001a80       ?Base@?$CUtlVector@VCPluginBot@@V?$CUtlMemory@VCPluginBot@@@@@@QAEPAVCPluginBot@@XZ 10002a80 f i serverplugin_bot.obj
 0001:00001a90       ?ResetDbgInfo@?$CUtlVector@VCPluginBot@@V?$CUtlMemory@VCPluginBot@@@@@@IAEXXZ 10002a90 f i serverplugin_bot.obj
 0001:00001aa0       ?Element@?$CUtlVector@VCPluginBot@@V?$CUtlMemory@VCPluginBot@@@@@@QAEAAVCPluginBot@@H@Z 10002aa0 f i serverplugin_bot.obj
 0001:00001ac0       ?ShiftElementsLeft@?$CUtlVector@VCPluginBot@@V?$CUtlMemory@VCPluginBot@@@@@@IAEXHH@Z 10002ac0 f i serverplugin_bot.obj
 0001:00001b20       ??0?$CUtlMemory@VCPluginBot@@@@QAE@HH@Z 10002b20 f i serverplugin_bot.obj
 0001:00001b70       ?RemoveAll@?$CUtlVector@VCPluginBot@@V?$CUtlMemory@VCPluginBot@@@@@@QAEXXZ 10002b70 f i serverplugin_bot.obj
 0001:00001b80       ?ShiftElementsRight@?$CUtlVector@VCPluginBot@@V?$CUtlMemory@VCPluginBot@@@@@@IAEXHH@Z 10002b80 f i serverplugin_bot.obj
 0001:00001be0       ?Purge@?$CUtlMemory@VCPluginBot@@@@QAEXXZ 10002be0 f i serverplugin_bot.obj
 0001:00001c10       ?Grow@?$CUtlMemory@VCPluginBot@@@@QAEXH@Z 10002c10 f i serverplugin_bot.obj
 0001:00001ca0       ?Bot_UpdateDirection@@YAXPAVCPluginBot@@@Z 10002ca0 f   serverplugin_bot.obj
 0001:00001f10       ?Bot_Think@@YAXPAVCPluginBot@@@Z 10002f10 f   serverplugin_bot.obj
 0001:00002040       ??A?$CUtlVector@VCPluginBot@@V?$CUtlMemory@VCPluginBot@@@@@@QAEAAVCPluginBot@@H@Z 10003040 f i serverplugin_bot.obj
 0001:00002060       ?Remove@?$CUtlVector@VCPluginBot@@V?$CUtlMemory@VCPluginBot@@@@@@QAEXH@Z 10003060 f i serverplugin_bot.obj
 0001:000020b0       ?Purge@?$CUtlVector@VCPluginBot@@V?$CUtlMemory@VCPluginBot@@@@@@QAEXXZ 100030b0 f i serverplugin_bot.obj
 0001:00002100       ??1?$CUtlMemory@VCPluginBot@@@@QAE@XZ 10003100 f i serverplugin_bot.obj
 0001:00002130       ?GrowVector@?$CUtlVector@VCPluginBot@@V?$CUtlMemory@VCPluginBot@@@@@@IAEXH@Z 10003130 f i serverplugin_bot.obj
 0001:00002170       ?Bot_RunAll@@YAXXZ         10003170 f   serverplugin_bot.obj
 0001:00002210       ??0?$CUtlVector@VCPluginBot@@V?$CUtlMemory@VCPluginBot@@@@@@QAE@HH@Z 10003210 f i serverplugin_bot.obj
 0001:00002270       ??1?$CUtlVector@VCPluginBot@@V?$CUtlMemory@VCPluginBot@@@@@@QAE@XZ 10003270 f i serverplugin_bot.obj
 0001:00002300       ?InsertBefore@?$CUtlVector@VCPluginBot@@V?$CUtlMemory@VCPluginBot@@@@@@QAEHH@Z 10003300 f i serverplugin_bot.obj
 0001:00002390       ?AddToTail@?$CUtlVector@VCPluginBot@@V?$CUtlMemory@VCPluginBot@@@@@@QAEHXZ 10003390 f i serverplugin_bot.obj
 0001:000023a0       ?BotAdd_f@@YAXXZ           100033a0 f   serverplugin_bot.obj
 0001:00002450       ??0IConCommandBaseAccessor@@QAE@XZ 10003450 f i serverplugin_convar.obj
 0001:00002460       ?InitCVars@@YAXP6APAXPBDPAH@Z@Z 10003460 f   serverplugin_convar.obj
 0001:00002490       ??0CPluginConVarAccessor@@QAE@XZ 10003490 f i serverplugin_convar.obj
 0001:000024a0       ?RegisterConCommandBase@CPluginConVarAccessor@@UAE_NPAVConCommandBase@@@Z 100034a0 f i serverplugin_convar.obj
 0001:000024e0       ?V_stricmp@@YAHPBD0@Z      100034e0 f i serverplugin_empty.obj
 0001:000024f0       ?SetColor@Color@@QAEXHHHH@Z 100034f0 f i serverplugin_empty.obj
 0001:00002510       ??1IGameEventListener@@UAE@XZ 10003510 f i serverplugin_empty.obj
 0001:00002520       ??_EIGameEventListener@@UAEPAXI@Z 10003520 f i serverplugin_empty.obj
 0001:00002520       ??_GIGameEventListener@@UAEPAXI@Z 10003520 f i serverplugin_empty.obj
 0001:00002550       ?FStrEq@@YA_NPBD0@Z        10003550 f i serverplugin_empty.obj
 0001:00002580       ??0IServerPluginCallbacks@@QAE@XZ 10003580 f i serverplugin_empty.obj
 0001:00002590       ??0IGameEventListener@@QAE@XZ 10003590 f i serverplugin_empty.obj
 0001:000025a0       ??1CEmptyServerPlugin@@UAE@XZ 100035a0 f   serverplugin_empty.obj
 0001:000025b0       ?GetCommandIndex@CEmptyServerPlugin@@UAEHXZ 100035b0 f i serverplugin_empty.obj
 0001:000025c0       ?Load@CEmptyServerPlugin@@UAE_NP6APAXPBDPAH@Z2@Z 100035c0 f   serverplugin_empty.obj
 0001:000026f0       ?Unload@CEmptyServerPlugin@@UAEXXZ 100036f0 f   serverplugin_empty.obj
 0001:00002720       ?Pause@CEmptyServerPlugin@@UAEXXZ 10003720 f   serverplugin_empty.obj
 0001:00002730       ?UnPause@CEmptyServerPlugin@@UAEXXZ 10003730 f   serverplugin_empty.obj
 0001:00002740       ?GetPluginDescription@CEmptyServerPlugin@@UAEPBDXZ 10003740 f   serverplugin_empty.obj
 0001:00002750       ?LevelInit@CEmptyServerPlugin@@UAEXPBD@Z 10003750 f   serverplugin_empty.obj
 0001:00002790       ?ServerActivate@CEmptyServerPlugin@@UAEXPAUedict_t@@HH@Z 10003790 f   serverplugin_empty.obj
 0001:000027a0       ?GameFrame@CEmptyServerPlugin@@UAEX_N@Z 100037a0 f   serverplugin_empty.obj
 0001:000027c0       ?LevelShutdown@CEmptyServerPlugin@@UAEXXZ 100037c0 f   serverplugin_empty.obj
 0001:000027f0       ?ClientActive@CEmptyServerPlugin@@UAEXPAUedict_t@@@Z 100037f0 f   serverplugin_empty.obj
 0001:00002800       ?ClientDisconnect@CEmptyServerPlugin@@UAEXPAUedict_t@@@Z 10003800 f   serverplugin_empty.obj
 0001:00002810       ?SetCommandClient@CEmptyServerPlugin@@UAEXH@Z 10003810 f   serverplugin_empty.obj
 0001:00002820       ?ClientSettingsChanged@CEmptyServerPlugin@@UAEXPAUedict_t@@@Z 10003820 f   serverplugin_empty.obj
 0001:000028f0       ?ClientConnect@CEmptyServerPlugin@@UAE?AW4PLUGIN_RESULT@@PA_NPAUedict_t@@PBD2PADH@Z 100038f0 f   serverplugin_empty.obj
 0001:00002900       ?NetworkIDValidated@CEmptyServerPlugin@@UAE?AW4PLUGIN_RESULT@@PBD0@Z 10003900 f   serverplugin_empty.obj
 0001:00002910       ?FireGameEvent@CEmptyServerPlugin@@UAEXPAVKeyValues@@@Z 10003910 f   serverplugin_empty.obj
 0001:00002960       ??0Color@@QAE@HHHH@Z       10003960 f i serverplugin_empty.obj
 0001:00002980       ??0CEmptyServerPlugin@@QAE@XZ 10003980 f   serverplugin_empty.obj
 0001:000029a0       ??_ECEmptyServerPlugin@@W3AEPAXI@Z 100039a0 f i serverplugin_empty.obj
 0001:000029b0       ??_GCEmptyServerPlugin@@UAEPAXI@Z 100039b0 f i serverplugin_empty.obj
 0001:000029b0       ??_ECEmptyServerPlugin@@UAEPAXI@Z 100039b0 f i serverplugin_empty.obj
 0001:000029e0       ?ClientPutInServer@CEmptyServerPlugin@@UAEXPAUedict_t@@PBD@Z 100039e0 f   serverplugin_empty.obj
 0001:00002ac0       ?ClientCommand@CEmptyServerPlugin@@UAE?AW4PLUGIN_RESULT@@PAUedict_t@@@Z 10003ac0 f   serverplugin_empty.obj
 0001:00002e2c       _GetModuleFileNameA@12     10003e2c f   kernel32:KERNEL32.dll
 0001:00002e32       _VirtualQuery@12           10003e32 f   kernel32:KERNEL32.dll
 0001:00002e38       _HeapAlloc@12              10003e38 f   kernel32:KERNEL32.dll
 0001:00002e3e       _GetProcessHeap@0          10003e3e f   kernel32:KERNEL32.dll
 0001:00002e44       _Warning                   10003e44 f   tier0:tier0.dll
 0001:00002e4a       _Msg                       10003e4a f   tier0:tier0.dll
 0001:00002e50       _RandomFloat               10003e50 f   vstdlib:vstdlib.dll
 0001:00002e60       _acosf                     10003e60 f i mathlib:mathlib_base.obj
 0001:00002e80       _asinf                     10003e80 f i mathlib:mathlib_base.obj
 0001:00002ea0       _atan2f                    10003ea0 f i mathlib:mathlib_base.obj
 0001:00002ec0       _cosf                      10003ec0 f i mathlib:mathlib_base.obj
 0001:00002ee0       _fmodf                     10003ee0 f i mathlib:mathlib_base.obj
 0001:00002f00       _logf                      10003f00 f i mathlib:mathlib_base.obj
 0001:00002f20       _powf                      10003f20 f i mathlib:mathlib_base.obj
 0001:00002f40       _sinf                      10003f40 f i mathlib:mathlib_base.obj
 0001:00002f60       _sqrtf                     10003f60 f i mathlib:mathlib_base.obj
 0001:00002f80       ?acos@@YAMM@Z              10003f80 f i mathlib:mathlib_base.obj
 0001:00002fa0       ?asin@@YAMM@Z              10003fa0 f i mathlib:mathlib_base.obj
 0001:00002fc0       ?atan2@@YAMMM@Z            10003fc0 f i mathlib:mathlib_base.obj
 0001:00002fe0       ?log@@YAMM@Z               10003fe0 f i mathlib:mathlib_base.obj
 0001:00003000       ?pow@@YAMMM@Z              10004000 f i mathlib:mathlib_base.obj
 0001:00003020       ?sin@@YAMM@Z               10004020 f i mathlib:mathlib_base.obj
 0001:00003040       ?sqrt@@YAMM@Z              10004040 f i mathlib:mathlib_base.obj
 0001:00003060       ?FloatBits@@YAAAKAAM@Z     10004060 f i mathlib:mathlib_base.obj
 0001:00003070       ?BitsToFloat@@YAMK@Z       10004070 f i mathlib:mathlib_base.obj
 0001:00003080       ?FloatMakePositive@@YAMM@Z 10004080 f i mathlib:mathlib_base.obj
 0001:000030a0       ??0Vector2D@@QAE@XZ        100040a0 f i mathlib:mathlib_base.obj
 0001:000030b0       ?Vector2DSubtract@@YAXABVVector2D@@0AAV1@@Z 100040b0 f i mathlib:mathlib_base.obj
 0001:000030d0       ?MulAdd@Vector2D@@QAEXABV1@0M@Z 100040d0 f i mathlib:mathlib_base.obj
 0001:00003100       ?DotProduct2D@@YAMABVVector2D@@0@Z 10004100 f i mathlib:mathlib_base.obj
 0001:00003120       ?Dot@Vector2D@@QBEMABV1@@Z 10004120 f i mathlib:mathlib_base.obj
 0001:00003140       ?Vector2DLength@@YAMABVVector2D@@@Z 10004140 f i mathlib:mathlib_base.obj
 0001:00003170       ?LengthSqr@Vector2D@@QBEMXZ 10004170 f i mathlib:mathlib_base.obj
 0001:00003190       ?Length@Vector2D@@QBEMXZ   10004190 f i mathlib:mathlib_base.obj
 0001:000031c0       ?DistTo@Vector2D@@QBEMABV1@@Z 100041c0 f i mathlib:mathlib_base.obj
 0001:00003200       ?DistToSqr@Vector2D@@QBEMABV1@@Z 10004200 f i mathlib:mathlib_base.obj
 0001:00003240       ?Init@Vector@@QAEXMMM@Z    10004240 f i mathlib:mathlib_base.obj
 0001:00003260       ??AVector@@QAEAAMH@Z       10004260 f i mathlib:mathlib_base.obj
 0001:00003270       ??AVector@@QBEMH@Z         10004270 f i mathlib:mathlib_base.obj
 0001:00003280       ?VectorCopy@@YAXABVVector@@AAV1@@Z 10004280 f i mathlib:mathlib_base.obj
 0001:000032a0       ?VectorScale@@YAXABVVector@@MAAV1@@Z 100042a0 f i mathlib:mathlib_base.obj
 0001:000032d0       ?MulAdd@Vector@@QAEXABV1@0M@Z 100042d0 f i mathlib:mathlib_base.obj
 0001:00003310       ?VectorLerp@@YAXABVVector@@0MAAV1@@Z 10004310 f i mathlib:mathlib_base.obj
 0001:00003350       ?DotProduct@@YAMABVVector@@0@Z 10004350 f i mathlib:mathlib_base.obj
 0001:00003380       ?Dot@Vector@@QBEMABV1@@Z   10004380 f i mathlib:mathlib_base.obj
 0001:000033b0       ?CrossProduct@@YAXABVVector@@0AAV1@@Z 100043b0 f i mathlib:mathlib_base.obj
 0001:000033f0       ?DotProductAbs@@YAMABVVector@@PBM@Z 100043f0 f i mathlib:mathlib_base.obj
 0001:00003450       ?VectorLength@@YAMABVVector@@@Z 10004450 f i mathlib:mathlib_base.obj
 0001:00003490       ?Length@Vector@@QBEMXZ     10004490 f i mathlib:mathlib_base.obj
 0001:000034d0       ?DistTo@Vector@@QBEMABV1@@Z 100044d0 f i mathlib:mathlib_base.obj
 0001:00003530       ??0Quaternion@@QAE@XZ      10004530 f i mathlib:mathlib_base.obj
 0001:00003540       ??AQuaternion@@QAEAAMH@Z   10004540 f i mathlib:mathlib_base.obj
 0001:00003550       ??AQuaternion@@QBEMH@Z     10004550 f i mathlib:mathlib_base.obj
 0001:00003560       ??0RadianEuler@@QAE@XZ     10004560 f i mathlib:mathlib_base.obj
 0001:00003570       ?Init@RadianEuler@@QAEXMMM@Z 10004570 f i mathlib:mathlib_base.obj
 0001:00003590       ??AQAngle@@QBEMH@Z         10004590 f i mathlib:mathlib_base.obj
 0001:000035a0       ?VectorNormalize@@YAMAAVVector@@@Z 100045a0 f i mathlib:mathlib_base.obj
 0001:000035b0       ?VectorNormalizeFast@@YAXAAVVector@@@Z 100045b0 f i mathlib:mathlib_base.obj
 0001:000035c0       ?GetPlane@Frustum_t@@QBEPBUcplane_t@@H@Z 100045c0 f i mathlib:mathlib_base.obj
 0001:000035d0       ??0matrix3x4_t@@QAE@XZ     100045d0 f i mathlib:mathlib_base.obj
 0001:000035e0       ??Amatrix3x4_t@@QAEPAMH@Z  100045e0 f i mathlib:mathlib_base.obj
 0001:000035f0       ??Amatrix3x4_t@@QBEPBMH@Z  100045f0 f i mathlib:mathlib_base.obj
 0001:00003600       ?Base@matrix3x4_t@@QAEPAMXZ 10004600 f i mathlib:mathlib_base.obj
 0001:00003610       ?Base@matrix3x4_t@@QBEPBMXZ 10004610 f i mathlib:mathlib_base.obj
 0001:00003620       ?DotProduct@@YAMPBM0@Z     10004620 f i mathlib:mathlib_base.obj
 0001:00003650       ?VectorScale@@YAXPBMMPAM@Z 10004650 f i mathlib:mathlib_base.obj
 0001:00003680       ?SinCos@@YAXMPAM0@Z        10004680 f i mathlib:mathlib_base.obj
 0001:000036a0       ?anglemod@@YAMM@Z          100046a0 f i mathlib:mathlib_base.obj
 0001:00003700       ?TexLightToLinear@@YAMHH@Z 10004700 f i mathlib:mathlib_base.obj
 0001:00003720       ?RoundFloatToInt@@YAHM@Z   10004720 f i mathlib:mathlib_base.obj
 0001:00003740       ?Floor2Int@@YAHM@Z         10004740 f i mathlib:mathlib_base.obj
 0001:00003770       ?_sqrtf@@YAMM@Z            10004770 f   mathlib:mathlib_base.obj
 0001:00003790       ?_rsqrtf@@YAMM@Z           10004790 f   mathlib:mathlib_base.obj
 0001:000037b0       ?_VectorNormalize@@YIMAAVVector@@@Z 100047b0 f   mathlib:mathlib_base.obj
 0001:00003820       ?_VectorNormalizeFast@@YIXAAVVector@@@Z 10004820 f   mathlib:mathlib_base.obj
 0001:00003880       ?_InvRSquared@@YAMPBM@Z    10004880 f   mathlib:mathlib_base.obj
 0001:000038d0       ?_3DNow_Sqrt@@YAMM@Z       100048d0 f   mathlib:mathlib_base.obj
 0001:00003900       ?_3DNow_RSqrt@@YAMM@Z      10004900 f   mathlib:mathlib_base.obj
 0001:00003930       ?_3DNow_VectorNormalize@@YIMAAVVector@@@Z 10004930 f   mathlib:mathlib_base.obj
 0001:000039c0       ?_3DNow_VectorNormalizeFast@@YIXAAVVector@@@Z 100049c0 f   mathlib:mathlib_base.obj
 0001:000039d0       ?_3DNow_InvRSquared@@YAMPBM@Z 100049d0 f   mathlib:mathlib_base.obj
 0001:00003a10       ?_SSE_Sqrt@@YAMM@Z         10004a10 f   mathlib:mathlib_base.obj
 0001:00003a30       ?_SSE_RSqrtAccurate@@YAMM@Z 10004a30 f i mathlib:mathlib_base.obj
 0001:00003a80       ?_SSE_RSqrtFast@@YAMM@Z    10004a80 f i mathlib:mathlib_base.obj
 0001:00003aa0       ?_SSE_VectorNormalize@@YIMAAVVector@@@Z 10004aa0 f   mathlib:mathlib_base.obj
 0001:00003b60       ?_SSE_VectorNormalizeFast@@YIXAAVVector@@@Z 10004b60 f   mathlib:mathlib_base.obj
 0001:00003bf0       ?_SSE_InvRSquared@@YAMPBM@Z 10004bf0 f   mathlib:mathlib_base.obj
 0001:00003c40       ?_SSE_SinCos@@YAXMPAM0@Z   10004c40 f   mathlib:mathlib_base.obj
 0001:00003d80       ?_SSE_cos@@YAMM@Z          10004d80 f   mathlib:mathlib_base.obj
 0001:00003e50       ?_SSE2_SinCos@@YAXMPAM0@Z  10004e50 f   mathlib:mathlib_base.obj
 0001:00003f80       ?_SSE2_cos@@YAMM@Z         10004f80 f   mathlib:mathlib_base.obj
 0001:00004050       ?InitSinCosTable@@YAXXZ    10005050 f   mathlib:mathlib_base.obj
 0001:00004090       ?VectorsEqual@@YAHPBM0@Z   10005090 f   mathlib:mathlib_base.obj
 0001:000040d0       ?LineSphereIntersection@@YAHABVVector@@M00PAM1@Z 100050d0 f   mathlib:mathlib_base.obj
 0001:000041e0       ?MatrixAngles@@YAXABUmatrix3x4_t@@PAM@Z 100051e0 f   mathlib:mathlib_base.obj
 0001:000042e0       ?VectorTransform@@YAXPBMABUmatrix3x4_t@@PAM@Z 100052e0 f   mathlib:mathlib_base.obj
 0001:00004350       ?VectorTransformSSE@@YAXPBMABUmatrix3x4_t@@PAM@Z 10005350 f   mathlib:mathlib_base.obj
 0001:000043f0       ?VectorITransform@@YAXPBMABUmatrix3x4_t@@PAM@Z 100053f0 f   mathlib:mathlib_base.obj
 0001:00004470       ?VectorRotate@@YAXPBMABUmatrix3x4_t@@PAM@Z 10005470 f   mathlib:mathlib_base.obj
 0001:000044d0       ?VectorRotateSSE@@YAXPBMABUmatrix3x4_t@@PAM@Z 100054d0 f   mathlib:mathlib_base.obj
 0001:00004560       ?TransformAndRotate@@YAXABVVector@@0ABUmatrix3x4_t@@AAV1@2@Z 10005560 f   mathlib:mathlib_base.obj
 0001:00004670       ?VectorIRotate@@YAXPBMABUmatrix3x4_t@@PAM@Z 10005670 f   mathlib:mathlib_base.obj
 0001:000046d0       ?MatrixCopy@@YAXABUmatrix3x4_t@@AAU1@@Z 100056d0 f   mathlib:mathlib_base.obj
 0001:000046f0       ?MatrixGetColumn@@YAXABUmatrix3x4_t@@HAAVVector@@@Z 100056f0 f   mathlib:mathlib_base.obj
 0001:00004720       ?MatrixSetColumn@@YAXABVVector@@HAAUmatrix3x4_t@@@Z 10005720 f   mathlib:mathlib_base.obj
 0001:00004750       ?VectorCompare@@YAHPBM0@Z  10005750 f   mathlib:mathlib_base.obj
 0001:00004790       ?VectorMA@@YAXPBMM0PAM@Z   10005790 f   mathlib:mathlib_base.obj
 0001:000047d0       ?_SSE_VectorMA@@YAXPBMM0PAM@Z 100057d0 f   mathlib:mathlib_base.obj
 0001:00004800       ?CrossProduct@@YAXPBM0PAM@Z 10005800 f   mathlib:mathlib_base.obj
 0001:00004840       ?Q_log2@@YAHH@Z            10005840 f   mathlib:mathlib_base.obj
 0001:00004860       ?VectorMatrix@@YAXABVVector@@AAUmatrix3x4_t@@@Z 10005860 f   mathlib:mathlib_base.obj
 0001:00004960       ?VectorVectors@@YAXABVVector@@AAV1@1@Z 10005960 f   mathlib:mathlib_base.obj
 0001:00004a20       ?VectorAngles@@YAXPBMPAM@Z 10005a20 f   mathlib:mathlib_base.obj
 0001:00004b30       ?ConcatRotations@@YAXQAY02$$CBM0QAY02M@Z 10005b30 f   mathlib:mathlib_base.obj
 0001:00004c20       ?ConcatTransforms@@YAXABUmatrix3x4_t@@0AAU1@@Z 10005c20 f   mathlib:mathlib_base.obj
 0001:00004de0       ?FloorDivMod@@YAXNNPAH0@Z  10005de0 f   mathlib:mathlib_base.obj
 0001:00004ed0       ?GreatestCommonDivisor@@YAHHH@Z 10005ed0 f   mathlib:mathlib_base.obj
 0001:00004f10       ?IsDenormal@@YA_NABM@Z     10005f10 f   mathlib:mathlib_base.obj
 0001:00004f40       ?SignbitsForPlane@@YAHPAUcplane_t@@@Z 10005f40 f   mathlib:mathlib_base.obj
 0001:00004f80       ?BoxOnPlaneSide@@YAHPBM0PBUcplane_t@@@Z 10005f80 f   mathlib:mathlib_base.obj
 0001:000051d0       ?VectorMA@@YAXABVVector@@M0AAV1@@Z 100061d0 f   mathlib:mathlib_base.obj
 0001:00005210       ?AngleVectors@@YAXABVQAngle@@PAVVector@@@Z 10006210 f   mathlib:mathlib_base.obj
 0001:00005290       ?AngleVectors@@YAXABVQAngle@@PAVVector@@11@Z 10006290 f   mathlib:mathlib_base.obj
 0001:000053d0       ?AngleVectorsTranspose@@YAXABVQAngle@@PAVVector@@11@Z 100063d0 f   mathlib:mathlib_base.obj
 0001:00005500       ?VectorAngles@@YAXABVVector@@AAVQAngle@@@Z 10006500 f   mathlib:mathlib_base.obj
 0001:00005620       ?VectorAngles@@YAXABVVector@@0AAVQAngle@@@Z 10006620 f   mathlib:mathlib_base.obj
 0001:00005750       ?SetIdentityMatrix@@YAXAAUmatrix3x4_t@@@Z 10006750 f   mathlib:mathlib_base.obj
 0001:00005780       ?AngleMatrix@@YAXABVQAngle@@AAUmatrix3x4_t@@@Z 10006780 f   mathlib:mathlib_base.obj
 0001:000058a0       ?AngleIMatrix@@YAXABVQAngle@@AAUmatrix3x4_t@@@Z 100068a0 f   mathlib:mathlib_base.obj
 0001:000059c0       ?SphereToAABBIntersection@@YA_NABVVector@@M00@Z 100069c0 f   mathlib:mathlib_base.obj
 0001:00005aa0       ?ClearBounds@@YAXAAVVector@@0@Z 10006aa0 f   mathlib:mathlib_base.obj
 0001:00005ad0       ?AddPointToBounds@@YAXABVVector@@AAV1@1@Z 10006ad0 f   mathlib:mathlib_base.obj
 0001:00005b70       ?GammaToLinearFullRange@@YAMM@Z 10006b70 f   mathlib:mathlib_base.obj
 0001:00005b90       ?LinearToGammaFullRange@@YAMM@Z 10006b90 f   mathlib:mathlib_base.obj
 0001:00005bb0       ?GammaToLinear@@YAMM@Z     10006bb0 f   mathlib:mathlib_base.obj
 0001:00005c00       ?LinearToGamma@@YAMM@Z     10006c00 f   mathlib:mathlib_base.obj
 0001:00005c50       ?TextureToLinear@@YAMH@Z   10006c50 f   mathlib:mathlib_base.obj
 0001:00005c80       ?LinearToTexture@@YAHM@Z   10006c80 f   mathlib:mathlib_base.obj
 0001:00005cc0       ?LinearToScreenGamma@@YAHM@Z 10006cc0 f   mathlib:mathlib_base.obj
 0001:00005d00       ?SolveQuadratic@@YA_NMMMAAM0@Z 10006d00 f   mathlib:mathlib_base.obj
 0001:00005dd0       ?SolveInverseQuadratic@@YA_NMMMMMMAAM00@Z 10006dd0 f   mathlib:mathlib_base.obj
 0001:00005ec0       ?SolveInverseReciprocalQuadratic@@YA_NMMMMMMAAM00@Z 10006ec0 f   mathlib:mathlib_base.obj
 0001:00005fe0       ?VectorYawRotate@@YAXABVVector@@MAAV1@@Z 10006fe0 f   mathlib:mathlib_base.obj
 0001:00006080       ?Bias@@YAMMM@Z             10007080 f   mathlib:mathlib_base.obj
 0001:000060d0       ?Gain@@YAMMM@Z             100070d0 f   mathlib:mathlib_base.obj
 0001:000061b0       ?SmoothCurve@@YAMM@Z       100071b0 f   mathlib:mathlib_base.obj
 0001:000061e0       ?MovePeak@@YAMMM@Z         100071e0 f i mathlib:mathlib_base.obj
 0001:00006230       ?SmoothCurve_Tweak@@YAMMMM@Z 10007230 f   mathlib:mathlib_base.obj
 0001:000062a0       ?QuaternionAlign@@YAXABVQuaternion@@0AAV1@@Z 100072a0 f   mathlib:mathlib_base.obj
 0001:00006390       ?QuaternionSlerpNoAlign@@YAXABVQuaternion@@0MAAV1@@Z 10007390 f   mathlib:mathlib_base.obj
 0001:00006530       ?QuaternionConjugate@@YAXABVQuaternion@@AAV1@@Z 10007530 f   mathlib:mathlib_base.obj
 0001:00006560       ?QuaternionNormalize@@YAMAAVQuaternion@@@Z 10007560 f   mathlib:mathlib_base.obj
 0001:000065e0       ?QuaternionScale@@YAXABVQuaternion@@MAAV1@@Z 100075e0 f   mathlib:mathlib_base.obj
 0001:000066d0       ?QuaternionAdd@@YAXABVQuaternion@@0AAV1@@Z 100076d0 f   mathlib:mathlib_base.obj
 0001:00006720       ?QuaternionDotProduct@@YAMABVQuaternion@@0@Z 10007720 f   mathlib:mathlib_base.obj
 0001:00006750       ?QuaternionMult@@YAXABVQuaternion@@0AAV1@@Z 10007750 f   mathlib:mathlib_base.obj
 0001:00006830       ?QuaternionMatrix@@YAXABVQuaternion@@AAUmatrix3x4_t@@@Z 10007830 f   mathlib:mathlib_base.obj
 0001:00006900       ?QuaternionAxisAngle@@YAXABVQuaternion@@AAVVector@@AAM@Z 10007900 f   mathlib:mathlib_base.obj
 0001:00006970       ?AxisAngleQuaternion@@YAXABVVector@@MAAVQuaternion@@@Z 10007970 f   mathlib:mathlib_base.obj
 0001:000069d0       ?AngleQuaternion@@YAXABVRadianEuler@@AAVQuaternion@@@Z 100079d0 f   mathlib:mathlib_base.obj
 0001:00006ad0       ?Spline_Normalize@@YAXABVVector@@000AAV1@1@Z 10007ad0 f   mathlib:mathlib_base.obj
 0001:00006bc0       ?Catmull_Rom_Spline@@YAXABVVector@@000MAAV1@@Z 10007bc0 f   mathlib:mathlib_base.obj
 0001:00006e90       ?Catmull_Rom_Spline_Tangent@@YAXABVVector@@000MAAV1@@Z 10007e90 f   mathlib:mathlib_base.obj
 0001:00007140       ?Catmull_Rom_Spline_Normalize@@YAXABVVector@@000MAAV1@@Z 10008140 f   mathlib:mathlib_base.obj
 0001:00007240       ?Catmull_Rom_Spline_NormalizeX@@YAXABVVector@@000MAAV1@@Z 10008240 f   mathlib:mathlib_base.obj
 0001:00007290       ?Hermite_Spline@@YAXABVVector@@000MAAV1@@Z 10008290 f   mathlib:mathlib_base.obj
 0001:00007350       ?Hermite_Spline@@YAMMMMMM@Z 10008350 f   mathlib:mathlib_base.obj
 0001:000073f0       ?Hermite_SplineBasis@@YAXMQAM@Z 100083f0 f   mathlib:mathlib_base.obj
 0001:00007450       ?Hermite_Spline@@YAXABVVector@@00MAAV1@@Z 10008450 f   mathlib:mathlib_base.obj
 0001:000074f0       ?Hermite_Spline@@YAMMMMM@Z 100084f0 f   mathlib:mathlib_base.obj
 0001:00007540       ?Hermite_Spline@@YAXABVQuaternion@@00MAAV1@@Z 10008540 f   mathlib:mathlib_base.obj
 0001:00007690       ?Kochanek_Bartels_Spline@@YAXMMMABVVector@@000MAAV1@@Z 10008690 f   mathlib:mathlib_base.obj
 0001:00007a60       ?Kochanek_Bartels_Spline_NormalizeX@@YAXMMMABVVector@@000MAAV1@@Z 10008a60 f   mathlib:mathlib_base.obj
 0001:00007ad0       ?Cubic_Spline@@YAXABVVector@@000MAAV1@@Z 10008ad0 f   mathlib:mathlib_base.obj
 0001:00007c30       ?Cubic_Spline_NormalizeX@@YAXABVVector@@000MAAV1@@Z 10008c30 f   mathlib:mathlib_base.obj
 0001:00007c80       ?BSpline@@YAXABVVector@@000MAAV1@@Z 10008c80 f   mathlib:mathlib_base.obj
 0001:00007fa0       ?BSpline_NormalizeX@@YAXABVVector@@000MAAV1@@Z 10008fa0 f   mathlib:mathlib_base.obj
 0001:00007ff0       ?Parabolic_Spline@@YAXABVVector@@000MAAV1@@Z 10008ff0 f   mathlib:mathlib_base.obj
 0001:000081c0       ?Parabolic_Spline_NormalizeX@@YAXABVVector@@000MAAV1@@Z 100091c0 f   mathlib:mathlib_base.obj
 0001:00008210       ?RangeCompressor@@YAMMMMM@Z 10009210 f   mathlib:mathlib_base.obj
 0001:00008310       ?CalcSqrDistanceToAABB@@YAMABVVector@@00@Z 10009310 f   mathlib:mathlib_base.obj
 0001:000083e0       ?CalcClosestPointOnAABB@@YAXABVVector@@00AAV1@@Z 100093e0 f   mathlib:mathlib_base.obj
 0001:00008490       ?CalcClosestPointToLineT@@YAMABVVector@@00AAV1@@Z 10009490 f   mathlib:mathlib_base.obj
 0001:00008540       ?CalcClosestPointOnLine@@YAXABVVector@@00AAV1@PAM@Z 10009540 f   mathlib:mathlib_base.obj
 0001:000085a0       ?CalcDistanceToLine@@YAMABVVector@@00PAM@Z 100095a0 f   mathlib:mathlib_base.obj
 0001:00008640       ?CalcClosestPointOnLineSegment@@YAXABVVector@@00AAV1@PAM@Z 10009640 f   mathlib:mathlib_base.obj
 0001:000086d0       ?CalcDistanceToLineSegment@@YAMABVVector@@00PAM@Z 100096d0 f   mathlib:mathlib_base.obj
 0001:00008740       ?CalcClosestPointToLineT2D@@YAMABVVector2D@@00AAV1@@Z 10009740 f   mathlib:mathlib_base.obj
 0001:000087c0       ?CalcClosestPointOnLine2D@@YAXABVVector2D@@00AAV1@PAM@Z 100097c0 f   mathlib:mathlib_base.obj
 0001:00008810       ?CalcDistanceToLine2D@@YAMABVVector2D@@00PAM@Z 10009810 f   mathlib:mathlib_base.obj
 0001:00008890       ?CalcDistanceSqrToLine2D@@YAMABVVector2D@@00PAM@Z 10009890 f   mathlib:mathlib_base.obj
 0001:00008900       ?CalcClosestPointOnLineSegment2D@@YAXABVVector2D@@00AAV1@PAM@Z 10009900 f   mathlib:mathlib_base.obj
 0001:00008980       ?CalcDistanceToLineSegment2D@@YAMABVVector2D@@00PAM@Z 10009980 f   mathlib:mathlib_base.obj
 0001:000089e0       ?CalcDistanceSqrToLineSegment2D@@YAMABVVector2D@@00PAM@Z 100099e0 f   mathlib:mathlib_base.obj
 0001:00008a30       ?CalcLineToLineIntersectionSegment@@YA_NABVVector@@000PAV1@1PAM2@Z 10009a30 f   mathlib:mathlib_base.obj
 0001:00008c70       ?MathLib_3DNowEnabled@@YA_NXZ 10009c70 f   mathlib:mathlib_base.obj
 0001:00008c80       ?MathLib_MMXEnabled@@YA_NXZ 10009c80 f   mathlib:mathlib_base.obj
 0001:00008c90       ?MathLib_SSEEnabled@@YA_NXZ 10009c90 f   mathlib:mathlib_base.obj
 0001:00008ca0       ?MathLib_SSE2Enabled@@YA_NXZ 10009ca0 f   mathlib:mathlib_base.obj
 0001:00008cb0       ?Approach@@YAMMMM@Z        10009cb0 f   mathlib:mathlib_base.obj
 0001:00008d10       ?ApproachAngle@@YAMMMM@Z   10009d10 f   mathlib:mathlib_base.obj
 0001:00008e00       ?AngleDiff@@YAMMM@Z        10009e00 f   mathlib:mathlib_base.obj
 0001:00008e80       ?AngleDistance@@YAMMM@Z    10009e80 f   mathlib:mathlib_base.obj
 0001:00008ed0       ?AngleNormalize@@YAMM@Z    10009ed0 f   mathlib:mathlib_base.obj
 0001:00008f30       ?AngleNormalizePositive@@YAMM@Z 10009f30 f   mathlib:mathlib_base.obj
 0001:00008f70       ?AnglesAreEqual@@YA_NMMM@Z 10009f70 f   mathlib:mathlib_base.obj
 0001:00008fb0       ?ComputeTrianglePlane@@YAXABVVector@@00AAV1@AAM@Z 10009fb0 f   mathlib:mathlib_base.obj
 0001:00009060       ?PolyFromPlane@@YAHPAVVector@@ABV1@MM@Z 1000a060 f   mathlib:mathlib_base.obj
 0001:000092e0       ?ClipPolyToPlane@@YAHPAVVector@@H0ABV1@MM@Z 1000a2e0 f   mathlib:mathlib_base.obj
 0001:00009610       ?ClipPolyToPlane_Precise@@YAHPANH0PBNNN@Z 1000a610 f   mathlib:mathlib_base.obj
 0001:00009850       ?ColorRGBExp32ToVector@@YAXABUColorRGBExp32@@AAVVector@@@Z 1000a850 f   mathlib:mathlib_base.obj
 0001:00009960       ?CeilPow2@@YAHH@Z          1000a960 f   mathlib:mathlib_base.obj
 0001:00009980       ?FloorPow2@@YAHH@Z         1000a980 f   mathlib:mathlib_base.obj
 0001:000099a0       ??$_Pow_int@M@@YAMMH@Z     1000a9a0 f i mathlib:mathlib_base.obj
 0001:000099f0       ??$swap@M@@YAXAAM0@Z       1000a9f0 f i mathlib:mathlib_base.obj
 0001:00009a10       ?pow@@YAMMH@Z              1000aa10 f i mathlib:mathlib_base.obj
 0001:00009a30       ?DistToSqr@Vector@@QBEMABV1@@Z 1000aa30 f i mathlib:mathlib_base.obj
 0001:00009a80       ?VectorRotate@@YAXABVVector@@ABUmatrix3x4_t@@AAV1@@Z 1000aa80 f i mathlib:mathlib_base.obj
 0001:00009ae0       ?VectorIRotate@@YAXABVVector@@ABUmatrix3x4_t@@AAV1@@Z 1000aae0 f i mathlib:mathlib_base.obj
 0001:00009b40       ?MatrixAngles@@YAXABUmatrix3x4_t@@AAVQAngle@@@Z 1000ab40 f i mathlib:mathlib_base.obj
 0001:00009b50       ?MatrixAngles@@YAXABUmatrix3x4_t@@AAVRadianEuler@@@Z 1000ab50 f i mathlib:mathlib_base.obj
 0001:00009ba0       ?VectorTransform@@YAXABVVector@@ABUmatrix3x4_t@@AAV1@@Z 1000aba0 f i mathlib:mathlib_base.obj
 0001:00009bb0       ?VectorITransform@@YAXABVVector@@ABUmatrix3x4_t@@AAV1@@Z 1000abb0 f i mathlib:mathlib_base.obj
 0001:00009bc0       ?BoxOnPlaneSide@@YAHABVVector@@0PBUcplane_t@@@Z 1000abc0 f i mathlib:mathlib_base.obj
 0001:00009bd0       ?MatrixAngles@@YAXABUmatrix3x4_t@@AAVRadianEuler@@AAVVector@@@Z 1000abd0 f   mathlib:mathlib_base.obj
 0001:00009c30       ?MatrixAngles@@YAXABUmatrix3x4_t@@AAVQuaternion@@AAVVector@@@Z 1000ac30 f   mathlib:mathlib_base.obj
 0001:00009d50       ?VectorRotate@@YAXABVVector@@ABVQAngle@@AAV1@@Z 1000ad50 f   mathlib:mathlib_base.obj
 0001:00009dd0       ?TransformAnglesToWorldSpace@@YA?AVQAngle@@ABV1@ABUmatrix3x4_t@@@Z 1000add0 f   mathlib:mathlib_base.obj
 0001:00009e30       ?MatrixInitialize@@YAXAAUmatrix3x4_t@@ABVVector@@111@Z 1000ae30 f   mathlib:mathlib_base.obj
 0001:00009e90       ?MatrixInvert@@YAXABUmatrix3x4_t@@AAU1@@Z 1000ae90 f   mathlib:mathlib_base.obj
 0001:00009f90       ?AngleMatrix@@YAXABVRadianEuler@@AAUmatrix3x4_t@@@Z 1000af90 f   mathlib:mathlib_base.obj
 0001:00009fd0       ?AngleMatrix@@YAXABVQAngle@@ABVVector@@AAUmatrix3x4_t@@@Z 1000afd0 f   mathlib:mathlib_base.obj
 0001:0000a000       ?AngleIMatrix@@YAXABVRadianEuler@@AAUmatrix3x4_t@@@Z 1000b000 f   mathlib:mathlib_base.obj
 0001:0000a040       ?AngleIMatrix@@YAXABVQAngle@@ABVVector@@AAUmatrix3x4_t@@@Z 1000b040 f   mathlib:mathlib_base.obj
 0001:0000a0e0       ?BuildExponentTable@@YAXXZ 1000b0e0 f   mathlib:mathlib_base.obj
 0001:0000a170       ?BuildGammaTable@@YAXMMMH@Z 1000b170 f   mathlib:mathlib_base.obj
 0001:0000a480       ?SolveInverseQuadraticMonotonic@@YA_NMMMMMMAAM00@Z 1000b480 f   mathlib:mathlib_base.obj
 0001:0000a670       ?QuaternionBlendNoAlign@@YAXABVQuaternion@@0MAAV1@@Z 1000b670 f   mathlib:mathlib_base.obj
 0001:0000a740       ?QuaternionIdentityBlend@@YAXABVQuaternion@@MAAV1@@Z 1000b740 f   mathlib:mathlib_base.obj
 0001:0000a7b0       ?QuaternionSlerp@@YAXABVQuaternion@@0MAAV1@@Z 1000b7b0 f   mathlib:mathlib_base.obj
 0001:0000a7f0       ?QuaternionAngleDiff@@YAMABVQuaternion@@0@Z 1000b7f0 f   mathlib:mathlib_base.obj
 0001:0000a880       ?QuaternionInvert@@YAXABVQuaternion@@AAV1@@Z 1000b880 f   mathlib:mathlib_base.obj
 0001:0000a910       ?QuaternionMatrix@@YAXABVQuaternion@@ABVVector@@AAUmatrix3x4_t@@@Z 1000b910 f   mathlib:mathlib_base.obj
 0001:0000a940       ?AngleQuaternion@@YAXABVQAngle@@AAVQuaternion@@@Z 1000b940 f   mathlib:mathlib_base.obj
 0001:0000a980       ?QuaternionAngles@@YAXABVQuaternion@@AAVQAngle@@@Z 1000b980 f   mathlib:mathlib_base.obj
 0001:0000a9c0       ?BasisToQuaternion@@YAXABVVector@@00AAVQuaternion@@@Z 1000b9c0 f   mathlib:mathlib_base.obj
 0001:0000aa80       ?QuaternionAngles@@YAXABVQuaternion@@AAVRadianEuler@@@Z 1000ba80 f   mathlib:mathlib_base.obj
 0001:0000aaf0       ?TransformAABB@@YAXABUmatrix3x4_t@@ABVVector@@1AAV2@2@Z 1000baf0 f   mathlib:mathlib_base.obj
 0001:0000aca0       ?ITransformAABB@@YAXABUmatrix3x4_t@@ABVVector@@1AAV2@2@Z 1000bca0 f   mathlib:mathlib_base.obj
 0001:0000ae50       ?RotateAABB@@YAXABUmatrix3x4_t@@ABVVector@@1AAV2@2@Z 1000be50 f   mathlib:mathlib_base.obj
 0001:0000b040       ?IRotateAABB@@YAXABUmatrix3x4_t@@ABVVector@@1AAV2@2@Z 1000c040 f   mathlib:mathlib_base.obj
 0001:0000b230       ?CalcDistanceSqrToLine@@YAMABVVector@@00PAM@Z 1000c230 f   mathlib:mathlib_base.obj
 0001:0000b2c0       ?CalcDistanceSqrToLineSegment@@YAMABVVector@@00PAM@Z 1000c2c0 f   mathlib:mathlib_base.obj
 0001:0000b330       ?MathLib_Init@@YAXMMMH_N000@Z 1000c330 f   mathlib:mathlib_base.obj
 0001:0000b4c0       ?RotationDeltaAxisAngle@@YAXABVQAngle@@0AAVVector@@AAM@Z 1000c4c0 f   mathlib:mathlib_base.obj
 0001:0000b570       ?RotationDelta@@YAXABVQAngle@@0PAV1@@Z 1000c570 f   mathlib:mathlib_base.obj
 0001:0000b610       ?VectorToColorRGBExp32@@YAXABVVector@@AAUColorRGBExp32@@@Z 1000c610 f   mathlib:mathlib_base.obj
 0001:0000b7a0       ?R_CullBox@@YA_NABVVector@@0ABVFrustum_t@@@Z 1000c7a0 f   mathlib:mathlib_base.obj
 0001:0000b830       ?R_CullBoxSkipNear@@YA_NABVVector@@0ABVFrustum_t@@@Z 1000c830 f   mathlib:mathlib_base.obj
 0001:0000b8b0       ?TransformAnglesToLocalSpace@@YA?AVQAngle@@ABV1@ABUmatrix3x4_t@@@Z 1000c8b0 f   mathlib:mathlib_base.obj
 0001:0000b920       ?AngleMatrix@@YAXABVRadianEuler@@ABVVector@@AAUmatrix3x4_t@@@Z 1000c920 f   mathlib:mathlib_base.obj
 0001:0000b970       ?QuaternionBlend@@YAXABVQuaternion@@0MAAV1@@Z 1000c970 f   mathlib:mathlib_base.obj
 0001:0000b9b0       ?OneTimeInit@ConCommandBaseMgr@@SAXPAVIConCommandBaseAccessor@@@Z 1000c9b0 f   tier1:convar.obj
 0001:0000b9e0       ??0ConCommandBase@@QAE@XZ  1000c9e0 f   tier1:convar.obj
 0001:0000ba00       ??1ConCommandBase@@UAE@XZ  1000ca00 f   tier1:convar.obj
 0001:0000ba10       ?IsCommand@ConCommandBase@@UBE_NXZ 1000ca10 f   tier1:convar.obj
 0001:0000ba20       ?Create@ConCommandBase@@MAEXPBD0H@Z 1000ca20 f   tier1:convar.obj
 0001:0000ba70       ?Init@ConCommandBase@@MAEXXZ 1000ca70 f   tier1:convar.obj
 0001:0000ba90       ?GetCommands@ConCommandBase@@SAPBV1@XZ 1000ca90 f   tier1:convar.obj
 0001:0000baa0       ?AddToList@ConCommandBase@@SAXPAV1@@Z 1000caa0 f   tier1:convar.obj
 0001:0000bac0       ?GetName@ConCommandBase@@UBEPBDXZ 1000cac0 f   tier1:convar.obj
 0001:0000bad0       ?RemoveFlaggedCommands@ConCommandBase@@SAXH@Z 1000cad0 f   tier1:convar.obj
 0001:0000bb10       ?IsBitSet@ConCommandBase@@UBE_NH@Z 1000cb10 f   tier1:convar.obj
 0001:0000bb20       ?AddFlags@ConCommandBase@@UAEXH@Z 1000cb20 f   tier1:convar.obj
 0001:0000bb30       ?GetNext@ConCommandBase@@QBEPBV1@XZ 1000cb30 f   tier1:convar.obj
 0001:0000bb40       ?SetNext@ConCommandBase@@QAEXPAV1@@Z 1000cb40 f   tier1:convar.obj
 0001:0000bb50       ?CopyString@ConCommandBase@@IAEPADPBD@Z 1000cb50 f   tier1:convar.obj
 0001:0000bba0       ?GetHelpText@ConCommandBase@@UBEPBDXZ 1000cba0 f   tier1:convar.obj
 0001:0000bbb0       ?IsRegistered@ConCommandBase@@UBE_NXZ 1000cbb0 f   tier1:convar.obj
 0001:0000bbc0       ??1ConCommand@@UAE@XZ      1000cbc0 f   tier1:convar.obj
 0001:0000bbd0       ?IsCommand@ConCommand@@UBE_NXZ 1000cbd0 f   tier1:convar.obj
 0001:0000bbe0       ?Dispatch@ConCommand@@UAEXXZ 1000cbe0 f   tier1:convar.obj
 0001:0000bbf0       ?DefaultCompletionFunc@@YAHPBDQAY0EA@D@Z 1000cbf0 f   tier1:convar.obj
 0001:0000bc00       ?Create@ConCommand@@EAEXPBDP6AXXZ0HP6AH0QAY0EA@D@Z@Z 1000cc00 f   tier1:convar.obj
 0001:0000bc80       ?AutoCompleteSuggest@ConCommand@@UAEHPBDQAY0EA@D@Z 1000cc80 f   tier1:convar.obj
 0001:0000bca0       ?CanAutoComplete@ConCommand@@UAE_NXZ 1000cca0 f   tier1:convar.obj
 0001:0000bcb0       ??1ConVar@@UAE@XZ          1000ccb0 f   tier1:convar.obj
 0001:0000bd20       ?InstallChangeCallback@ConVar@@QAEXP6AXPAV1@PBD@Z@Z 1000cd20 f   tier1:convar.obj
 0001:0000bd40       ?IsBitSet@ConVar@@UBE_NH@Z 1000cd40 f   tier1:convar.obj
 0001:0000bd60       ?GetHelpText@ConVar@@UBEPBDXZ 1000cd60 f   tier1:convar.obj
 0001:0000bd70       ?AddFlags@ConVar@@UAEXH@Z  1000cd70 f   tier1:convar.obj
 0001:0000bd80       ?IsRegistered@ConVar@@UBE_NXZ 1000cd80 f   tier1:convar.obj
 0001:0000bd90       ?GetName@ConVar@@UBEPBDXZ  1000cd90 f   tier1:convar.obj
 0001:0000bda0       ?IsCommand@ConVar@@UBE_NXZ 1000cda0 f   tier1:convar.obj
 0001:0000bdb0       ?Init@ConVar@@EAEXXZ       1000cdb0 f   tier1:convar.obj
 0001:0000bdd0       ?InternalSetValue@ConVar@@EAEXPBD@Z 1000cdd0 f   tier1:convar.obj
 0001:0000be60       ?ChangeStringValue@ConVar@@EAEXPBD@Z 1000ce60 f   tier1:convar.obj
 0001:0000bf10       ?ClampValue@ConVar@@EAE_NAAM@Z 1000cf10 f   tier1:convar.obj
 0001:0000bf60       ?InternalSetFloatValue@ConVar@@EAEXM@Z 1000cf60 f   tier1:convar.obj
 0001:0000c000       ?InternalSetIntValue@ConVar@@EAEXH@Z 1000d000 f   tier1:convar.obj
 0001:0000c090       ?Create@ConVar@@EAEXPBD0H0_NM1MP6AXPAV1@0@Z@Z 1000d090 f   tier1:convar.obj
 0001:0000c170       ?SetValue@ConVar@@UAEXPBD@Z 1000d170 f   tier1:convar.obj
 0001:0000c180       ?SetValue@ConVar@@UAEXM@Z  1000d180 f   tier1:convar.obj
 0001:0000c1a0       ?SetValue@ConVar@@UAEXH@Z  1000d1a0 f   tier1:convar.obj
 0001:0000c1b0       ?Revert@ConVar@@QAEXXZ     1000d1b0 f   tier1:convar.obj
 0001:0000c1c0       ?RevertAll@ConVar@@SAXXZ   1000d1c0 f   tier1:convar.obj
 0001:0000c200       ?GetMin@ConVar@@QBE_NAAM@Z 1000d200 f   tier1:convar.obj
 0001:0000c220       ?GetMax@ConVar@@QBE_NAAM@Z 1000d220 f   tier1:convar.obj
 0001:0000c240       ?GetDefault@ConVar@@QBEPBDXZ 1000d240 f   tier1:convar.obj
 0001:0000c250       ??_EConCommandBase@@UAEPAXI@Z 1000d250 f i tier1:convar.obj
 0001:0000c250       ??_GConCommandBase@@UAEPAXI@Z 1000d250 f i tier1:convar.obj
 0001:0000c280       ??0ConCommandBase@@QAE@PBD0H@Z 1000d280 f   tier1:convar.obj
 0001:0000c2e0       ?FindCommand@ConCommandBase@@SAPBV1@PBD@Z 1000d2e0 f   tier1:convar.obj
 0001:0000c320       ?RevertFlaggedCvars@ConCommandBase@@SAXH@Z 1000d320 f   tier1:convar.obj
 0001:0000c3a0       ??0ConCommand@@QAE@PBDP6AXXZ0HP6AH0QAY0EA@D@Z@Z 1000d3a0 f   tier1:convar.obj
 0001:0000c420       ??_EConCommand@@UAEPAXI@Z  1000d420 f i tier1:convar.obj
 0001:0000c420       ??_GConCommand@@UAEPAXI@Z  1000d420 f i tier1:convar.obj
 0001:0000c450       ??0ConVar@@QAE@PBD0H@Z     1000d450 f   tier1:convar.obj
 0001:0000c4d0       ??_GConVar@@UAEPAXI@Z      1000d4d0 f i tier1:convar.obj
 0001:0000c4d0       ??_EConVar@@UAEPAXI@Z      1000d4d0 f i tier1:convar.obj
 0001:0000c550       ??0ConVar@@QAE@PBD0H0@Z    1000d550 f   tier1:convar.obj
 0001:0000c5d0       ??0ConVar@@QAE@PBD0H0_NM1M@Z 1000d5d0 f   tier1:convar.obj
 0001:0000c660       ??0ConVar@@QAE@PBD0H0P6AXPAV0@0@Z@Z 1000d660 f   tier1:convar.obj
 0001:0000c6e0       ??0ConVar@@QAE@PBD0H0_NM1MP6AXPAV0@0@Z@Z 1000d6e0 f   tier1:convar.obj
 0001:0000c770       ?strchr@@YAPADPADH@Z       1000d770 f i tier1:strtools.obj
 0001:0000c780       ?strstr@@YAPADPADPBD@Z     1000d780 f i tier1:strtools.obj
 0001:0000c790       ?_V_strlen@@YAHPBDH0@Z     1000d790 f   tier1:strtools.obj
 0001:0000c7c0       ?_V_wcslen@@YAHPBDHPB_W@Z  1000d7c0 f   tier1:strtools.obj
 0001:0000c7f0       ?_V_strrchr@@YAPADPBDH0D@Z 1000d7f0 f   tier1:strtools.obj
 0001:0000c840       ?_V_strcmp@@YAHPBDH00@Z    1000d840 f   tier1:strtools.obj
 0001:0000c8a0       ?_V_wcscmp@@YAHPBDHPB_W1@Z 1000d8a0 f   tier1:strtools.obj
 0001:0000c8e0       ?_V_stricmp@@YAHPBDH00@Z   1000d8e0 f   tier1:strtools.obj
 0001:0000c920       ?_V_strstr@@YAPADPBDH00@Z  1000d920 f   tier1:strtools.obj
 0001:0000c960       ?_V_strupr@@YAPADPBDHPAD@Z 1000d960 f   tier1:strtools.obj
 0001:0000c980       ?_V_strlower@@YAPADPBDHPAD@Z 1000d980 f   tier1:strtools.obj
 0001:0000c9a0       ?V_strncmp@@YAHPBD0H@Z     1000d9a0 f   tier1:strtools.obj
 0001:0000c9f0       ?V_strnlwr@@YAPADPADI@Z    1000d9f0 f   tier1:strtools.obj
 0001:0000ca30       ?V_strncasecmp@@YAHPBD0H@Z 1000da30 f   tier1:strtools.obj
 0001:0000cab0       ?V_strcasecmp@@YAHPBD0@Z   1000dab0 f   tier1:strtools.obj
 0001:0000caf0       ?V_strnicmp@@YAHPBD0H@Z    1000daf0 f   tier1:strtools.obj
 0001:0000cb30       ?V_atoi@@YAHPBD@Z          1000db30 f   tier1:strtools.obj
 0001:0000cbe0       ?V_atof@@YAMPBD@Z          1000dbe0 f   tier1:strtools.obj
 0001:0000cd60       ?V_normalizeFloatString@@YAXPAD@Z 1000dd60 f   tier1:strtools.obj
 0001:0000cdc0       ?V_stristr@@YAPBDPBD0@Z    1000ddc0 f   tier1:strtools.obj
 0001:0000ce80       ?V_stristr@@YAPADPADPBD@Z  1000de80 f   tier1:strtools.obj
 0001:0000cec0       ?V_strnistr@@YAPBDPBD0H@Z  1000dec0 f   tier1:strtools.obj
 0001:0000cfb0       ?V_strnchr@@YAPBDPBDDH@Z   1000dfb0 f   tier1:strtools.obj
 0001:0000cfe0       ?V_strncat@@YAPADPADPBDIH@Z 1000dfe0 f   tier1:strtools.obj
 0001:0000d0a0       ?V_hextobinary@@YAXPBDHPAEH@Z 1000e0a0 f   tier1:strtools.obj
 0001:0000d160       ?V_StripTrailingSlash@@YAXPAD@Z 1000e160 f   tier1:strtools.obj
 0001:0000d1a0       ?V_DefaultExtension@@YAXPADPBDH@Z 1000e1a0 f   tier1:strtools.obj
 0001:0000d250       ?V_StripFilename@@YAXPAD@Z 1000e250 f   tier1:strtools.obj
 0001:0000d290       ?V_FixSlashes@@YAXPADD@Z   1000e290 f   tier1:strtools.obj
 0001:0000d2c0       ?V_UnqualifiedFileName@@YAPBDPBD@Z 1000e2c0 f   tier1:strtools.obj
 0001:0000d300       ?V_ExtractFilePath@@YA_NPBDPADH@Z 1000e300 f   tier1:strtools.obj
 0001:0000d370       ?V_GetFileExtension@@YAPBDPBD@Z 1000e370 f   tier1:strtools.obj
 0001:0000d3c0       ?V_RemoveDotSlashes@@YA_NPAD@Z 1000e3c0 f   tier1:strtools.obj
 0001:0000d4d0       ?V_AppendSlash@@YAXPADH@Z  1000e4d0 f   tier1:strtools.obj
 0001:0000d520       ?V_IsAbsolutePath@@YA_NPBD@Z 1000e520 f   tier1:strtools.obj
 0001:0000d5a0       ?V_StrSlice@@YAXPBDHHPADH@Z 1000e5a0 f   tier1:strtools.obj
 0001:0000d650       ?V_StrLeft@@YAXPBDHPADH@Z  1000e650 f   tier1:strtools.obj
 0001:0000d680       ?V_strtowcs@@YAXPBDHPA_WH@Z 1000e680 f   tier1:strtools.obj
 0001:0000d6b0       ?V_wcstostr@@YAXPB_WHPADH@Z 1000e6b0 f   tier1:strtools.obj
 0001:0000d6e0       ??$AssertValidWritePtr@X@@YAXPAXH@Z 1000e6e0 f i tier1:strtools.obj
 0001:0000d6f0       ??$AssertValidReadPtr@$$CBX@@YAXPBXH@Z 1000e6f0 f i tier1:strtools.obj
 0001:0000d700       ??$AssertValidWritePtr@D@@YAXPADH@Z 1000e700 f i tier1:strtools.obj
 0001:0000d710       ??$AssertValidWritePtr@_W@@YAXPA_WH@Z 1000e710 f i tier1:strtools.obj
 0001:0000d720       ??$AssertValidReadPtr@$$CB_W@@YAXPB_WH@Z 1000e720 f i tier1:strtools.obj
 0001:0000d730       ?Base@?$CUtlMemory@PAD@@QAEPAPADXZ 1000e730 f i tier1:strtools.obj
 0001:0000d740       ??$CopyConstruct@PAD@@YAXPAPADABQAD@Z 1000e740 f i tier1:strtools.obj
 0001:0000d760       ??$Destruct@PAD@@YAXPAPAD@Z 1000e760 f i tier1:strtools.obj
 0001:0000d770       ?IsExternallyAllocated@?$CUtlMemory@PAD@@QBE_NXZ 1000e770 f i tier1:strtools.obj
 0001:0000d780       ?NumAllocated@?$CUtlMemory@PAD@@QBEHXZ 1000e780 f i tier1:strtools.obj
 0001:0000d790       ?Grow@?$CUtlMemory@PAD@@QAEXH@Z 1000e790 f i tier1:strtools.obj
 0001:0000d800       ?_V_memset@@YAXPBDHPAXHH@Z 1000e800 f   tier1:strtools.obj
 0001:0000d830       ?_V_memcpy@@YAXPBDHPAXPBXH@Z 1000e830 f   tier1:strtools.obj
 0001:0000d860       ?_V_memmove@@YAXPBDHPAXPBXH@Z 1000e860 f   tier1:strtools.obj
 0001:0000d890       ?_V_memcmp@@YAHPBDHPBX1H@Z 1000e890 f   tier1:strtools.obj
 0001:0000d930       ?_V_strcpy@@YAXPBDHPAD0@Z  1000e930 f   tier1:strtools.obj
 0001:0000d970       ?V_strncpy@@YAXPADPBDH@Z   1000e970 f   tier1:strtools.obj
 0001:0000d9b0       ?V_wcsncpy@@YAXPA_WPB_WH@Z 1000e9b0 f   tier1:strtools.obj
 0001:0000d9f0       ?V_snprintf@@YAHPADHPBDZZ  1000e9f0 f   tier1:strtools.obj
 0001:0000da40       ?V_vsnprintf@@YAHPADHPBD0@Z 1000ea40 f   tier1:strtools.obj
 0001:0000da90       ?V_pretifymem@@YAPADMH_N@Z 1000ea90 f   tier1:strtools.obj
 0001:0000dc40       ?V_pretifynum@@YAPAD_J@Z   1000ec40 f   tier1:strtools.obj
 0001:0000df40       ?V_UTF8ToUnicode@@YAHPBDPA_WH@Z 1000ef40 f   tier1:strtools.obj
 0001:0000df90       ?V_UnicodeToUTF8@@YAHPB_WPADH@Z 1000ef90 f   tier1:strtools.obj
 0001:0000dfe0       ?V_binarytohex@@YAXPBEHPADH@Z 1000efe0 f   tier1:strtools.obj
 0001:0000e0b0       ?V_FileBase@@YAXPBDPADH@Z  1000f0b0 f   tier1:strtools.obj
 0001:0000e180       ?V_StripExtension@@YAXPBDPADH@Z 1000f180 f   tier1:strtools.obj
 0001:0000e220       ?V_SetExtension@@YAXPADPBDH@Z 1000f220 f   tier1:strtools.obj
 0001:0000e250       ?V_StripLastDir@@YA_NPADH@Z 1000f250 f   tier1:strtools.obj
 0001:0000e300       ?V_ComposeFileName@@YAXPBD0PADH@Z 1000f300 f   tier1:strtools.obj
 0001:0000e400       ?V_ExtractFileExtension@@YAXPBDPADH@Z 1000f400 f   tier1:strtools.obj
 0001:0000e480       ?V_MakeAbsolutePath@@YAXPADHPBD1@Z 1000f480 f   tier1:strtools.obj
 0001:0000e620       ?V_StrSubst@@YA_NPBD00PADH_N@Z 1000f620 f   tier1:strtools.obj
 0001:0000e7a0       ?AllocString@@YAPADPBDH@Z  1000f7a0 f   tier1:strtools.obj
 0001:0000e820       ?V_StrRight@@YAXPBDHPADH@Z 1000f820 f   tier1:strtools.obj
 0001:0000e8b0       ?Base@?$CUtlVector@PADV?$CUtlMemory@PAD@@@@QAEPAPADXZ 1000f8b0 f i tier1:strtools.obj
 0001:0000e8c0       ?Purge@?$CUtlMemory@PAD@@QAEXXZ 1000f8c0 f i tier1:strtools.obj
 0001:0000e8f0       ?Element@?$CUtlVector@PADV?$CUtlMemory@PAD@@@@QAEAAPADH@Z 1000f8f0 f i tier1:strtools.obj
 0001:0000e900       ?ShiftElementsRight@?$CUtlVector@PADV?$CUtlMemory@PAD@@@@IAEXHH@Z 1000f900 f i tier1:strtools.obj
 0001:0000e940       ?ResetDbgInfo@?$CUtlVector@PADV?$CUtlMemory@PAD@@@@IAEXXZ 1000f940 f i tier1:strtools.obj
 0001:0000e950       ?RemoveAll@?$CUtlVector@PADV?$CUtlMemory@PAD@@@@QAEXXZ 1000f950 f i tier1:strtools.obj
 0001:0000e960       ?GrowVector@?$CUtlVector@PADV?$CUtlMemory@PAD@@@@IAEXH@Z 1000f960 f i tier1:strtools.obj
 0001:0000e9a0       ?Purge@?$CUtlVector@PADV?$CUtlMemory@PAD@@@@QAEXXZ 1000f9a0 f i tier1:strtools.obj
 0001:0000e9f0       ?InsertBefore@?$CUtlVector@PADV?$CUtlMemory@PAD@@@@QAEHHABQAD@Z 1000f9f0 f i tier1:strtools.obj
 0001:0000ea60       ?AddToTail@?$CUtlVector@PADV?$CUtlMemory@PAD@@@@QAEHABQAD@Z 1000fa60 f i tier1:strtools.obj
 0001:0000ea80       ?V_SplitString2@@YAXPBDPAPBDHAAV?$CUtlVector@PADV?$CUtlMemory@PAD@@@@@Z 1000fa80 f   tier1:strtools.obj
 0001:0000ecb0       ?V_SplitString@@YAXPBD0AAV?$CUtlVector@PADV?$CUtlMemory@PAD@@@@@Z 1000fcb0 f   tier1:strtools.obj
 0001:0000ecd0       ?swprintf@@YAHPA_WPB_WZZ   1000fcd0 f i tier1:KeyValues.obj
 0001:0000ecf0       ?V_memcpy@@YAXPAXPBXH@Z    1000fcf0 f i tier1:KeyValues.obj
 0001:0000ed00       ??AColor@@QAEAAEH@Z        1000fd00 f i tier1:KeyValues.obj
 0001:0000ed10       ?IsText@CUtlBuffer@@QBE_NXZ 1000fd10 f i tier1:KeyValues.obj
 0001:0000ed20       ?IsValid@CUtlBuffer@@QBE_NXZ 1000fd20 f i tier1:KeyValues.obj
 0001:0000ed30       ??0CKeyValuesErrorStack@@QAE@XZ 1000fd30 f i tier1:KeyValues.obj
 0001:0000ed50       ?SetFilename@CKeyValuesErrorStack@@QAEXPBD@Z 1000fd50 f i tier1:KeyValues.obj
 0001:0000ed70       ?Push@CKeyValuesErrorStack@@QAEHH@Z 1000fd70 f i tier1:KeyValues.obj
 0001:0000edb0       ?Pop@CKeyValuesErrorStack@@QAEXXZ 1000fdb0 f i tier1:KeyValues.obj
 0001:0000edc0       ?Reset@CKeyValuesErrorStack@@QAEXHH@Z 1000fdc0 f i tier1:KeyValues.obj
 0001:0000edd0       ?ReportError@CKeyValuesErrorStack@@QAEXPBD@Z 1000fdd0 f i tier1:KeyValues.obj
 0001:0000ee70       ??1CKeyErrorContext@@QAE@XZ 1000fe70 f i tier1:KeyValues.obj
 0001:0000ee80       ?Reset@CKeyErrorContext@@QAEXH@Z 1000fe80 f i tier1:KeyValues.obj
 0001:0000eea0       ?Init@CKeyErrorContext@@AAEXH@Z 1000fea0 f i tier1:KeyValues.obj
 0001:0000eee0       ?Init@KeyValues@@AAEXXZ    1000fee0 f   tier1:KeyValues.obj
 0001:0000ef10       ??1KeyValues@@AAE@XZ       1000ff10 f   tier1:KeyValues.obj
 0001:0000ef20       ?ChainKeyValue@KeyValues@@QAEXPAV1@@Z 1000ff20 f   tier1:KeyValues.obj
 0001:0000ef30       ?GetName@KeyValues@@QBEPBDXZ 1000ff30 f   tier1:KeyValues.obj
 0001:0000ef50       ?GetNameSymbol@KeyValues@@QBEHXZ 1000ff50 f   tier1:KeyValues.obj
 0001:0000ef60       ?ReadToken@KeyValues@@AAEPBDAAVCUtlBuffer@@AA_N@Z 1000ff60 f   tier1:KeyValues.obj
 0001:0000f0c0       ?UsesEscapeSequences@KeyValues@@QAEX_N@Z 100100c0 f   tier1:KeyValues.obj
 0001:0000f0d0       ?InternalWrite@KeyValues@@AAEXPAVIBaseFileSystem@@PAXPAVCUtlBuffer@@PBXH@Z 100100d0 f   tier1:KeyValues.obj
 0001:0000f110       ?FindKey@KeyValues@@QBEPAV1@H@Z 10010110 f   tier1:KeyValues.obj
 0001:0000f140       ?RemoveSubKey@KeyValues@@QAEXPAV1@@Z 10010140 f   tier1:KeyValues.obj
 0001:0000f1a0       ?GetFirstSubKey@KeyValues@@QAEPAV1@XZ 100101a0 f   tier1:KeyValues.obj
 0001:0000f1b0       ?GetNextKey@KeyValues@@QAEPAV1@XZ 100101b0 f   tier1:KeyValues.obj
 0001:0000f1c0       ?SetNextKey@KeyValues@@QAEXPAV1@@Z 100101c0 f   tier1:KeyValues.obj
 0001:0000f1d0       ?GetFirstTrueSubKey@KeyValues@@QAEPAV1@XZ 100101d0 f   tier1:KeyValues.obj
 0001:0000f1f0       ?GetNextTrueSubKey@KeyValues@@QAEPAV1@XZ 100101f0 f   tier1:KeyValues.obj
 0001:0000f210       ?GetFirstValue@KeyValues@@QAEPAV1@XZ 10010210 f   tier1:KeyValues.obj
 0001:0000f230       ?GetNextValue@KeyValues@@QAEPAV1@XZ 10010230 f   tier1:KeyValues.obj
 0001:0000f250       ?SetStringValue@KeyValues@@QAEXPBD@Z 10010250 f   tier1:KeyValues.obj
 0001:0000f2b0       ?SetName@KeyValues@@QAEXPBD@Z 100102b0 f   tier1:KeyValues.obj
 0001:0000f2d0       ?CopySubkeys@KeyValues@@QBEXPAV1@@Z 100102d0 f   tier1:KeyValues.obj
 0001:0000f310       ??2KeyValues@@SAPAXI@Z     10010310 f   tier1:KeyValues.obj
 0001:0000f330       ??2KeyValues@@SAPAXIHPBDH@Z 10010330 f   tier1:KeyValues.obj
 0001:0000f350       ??3KeyValues@@SAXPAX@Z     10010350 f   tier1:KeyValues.obj
 0001:0000f370       ??3KeyValues@@SAXPAXHPBDH@Z 10010370 f   tier1:KeyValues.obj
 0001:0000f390       ??$AlignValue@I@@YAIII@Z   10010390 f i tier1:KeyValues.obj
 0001:0000f3b0       ??A?$CUtlMemory@E@@QBEABEH@Z 100103b0 f i tier1:KeyValues.obj
 0001:0000f3c0       ??A?$CUtlMemory@E@@QAEAAEH@Z 100103c0 f i tier1:KeyValues.obj
 0001:0000f3d0       ?IsExternallyAllocated@?$CUtlMemory@E@@QBE_NXZ 100103d0 f i tier1:KeyValues.obj
 0001:0000f3e0       ?Count@?$CUtlVector@PAVKeyValues@@V?$CUtlMemory@PAVKeyValues@@@@@@QBEHXZ 100103e0 f i tier1:KeyValues.obj
 0001:0000f3f0       ?Base@?$CUtlMemory@PAVKeyValues@@@@QAEPAPAVKeyValues@@XZ 100103f0 f i tier1:KeyValues.obj
 0001:0000f400       ?ValidateGrowSize@?$CUtlMemory@PAVKeyValues@@@@IAEXXZ 10010400 f i tier1:KeyValues.obj
 0001:0000f410       ??$CopyConstruct@PAVKeyValues@@@@YAXPAPAVKeyValues@@ABQAV0@@Z 10010410 f i tier1:KeyValues.obj
 0001:0000f430       ??$Destruct@PAVKeyValues@@@@YAXPAPAVKeyValues@@@Z 10010430 f i tier1:KeyValues.obj
 0001:0000f440       ?NumAllocated@?$CUtlMemory@PAVKeyValues@@@@QBEHXZ 10010440 f i tier1:KeyValues.obj
 0001:0000f450       ?IsExternallyAllocated@?$CUtlMemory@PAVKeyValues@@@@QBE_NXZ 10010450 f i tier1:KeyValues.obj
 0001:0000f460       ?GetOptimalReadSize@IFileSystem@@QAEIPAXI@Z 10010460 f i tier1:KeyValues.obj
 0001:0000f4a0       ?PeekGet@CUtlBuffer@@QBEPBXH@Z 100104a0 f i tier1:KeyValues.obj
 0001:0000f4c0       ?PeekPut@CUtlBuffer@@QAEPAXH@Z 100104c0 f i tier1:KeyValues.obj
 0001:0000f4e0       ?PutLittleEndianData@CUtlBuffer@@IAEXHPAX@Z 100104e0 f i tier1:KeyValues.obj
 0001:0000f520       ??0CKeyErrorContext@@QAE@PAVKeyValues@@@Z 10010520 f i tier1:KeyValues.obj
 0001:0000f560       ??0CKeyErrorContext@@QAE@H@Z 10010560 f i tier1:KeyValues.obj
 0001:0000f5a0       ??0KeyValues@@QAE@PBD@Z    100105a0 f   tier1:KeyValues.obj
 0001:0000f5f0       ??_GKeyValues@@AAEPAXI@Z   100105f0 f i tier1:KeyValues.obj
 0001:0000f620       ?LoadFromFile@KeyValues@@QAE_NPAVIBaseFileSystem@@PBD1@Z 10010620 f   tier1:KeyValues.obj
 0001:0000f780       ?WriteIndents@KeyValues@@AAEXPAVIBaseFileSystem@@PAXPAVCUtlBuffer@@H@Z 10010780 f   tier1:KeyValues.obj
 0001:0000f7e0       ?WriteConvertedString@KeyValues@@AAEXPAVIBaseFileSystem@@PAXPAVCUtlBuffer@@PBD@Z 100107e0 f   tier1:KeyValues.obj
 0001:0000f8a0       ?RecursiveSaveToFile@KeyValues@@AAEXPAVIBaseFileSystem@@PAXPAVCUtlBuffer@@H@Z 100108a0 f   tier1:KeyValues.obj
 0001:0000ffc0       ?FindKey@KeyValues@@QAEPAV1@PBD_N@Z 10010fc0 f   tier1:KeyValues.obj
 0001:00010130       ?AddSubKey@KeyValues@@QAEXPAV1@@Z 10011130 f   tier1:KeyValues.obj
 0001:00010170       ?GetInt@KeyValues@@QAEHPBDH@Z 10011170 f   tier1:KeyValues.obj
 0001:000101f0       ?GetUint64@KeyValues@@QAE_KPBD_K@Z 100111f0 f   tier1:KeyValues.obj
 0001:00010280       ?GetPtr@KeyValues@@QAEPAXPBDPAX@Z 10011280 f   tier1:KeyValues.obj
 0001:000102b0       ?GetFloat@KeyValues@@QAEMPBDM@Z 100112b0 f   tier1:KeyValues.obj
 0001:00010370       ?GetColor@KeyValues@@QAE?AVColor@@PBD@Z 10011370 f   tier1:KeyValues.obj
 0001:000104c0       ?SetColor@KeyValues@@QAEXPBDVColor@@@Z 100114c0 f   tier1:KeyValues.obj
 0001:00010500       ?SetString@KeyValues@@QAEXPBD0@Z 10011500 f   tier1:KeyValues.obj
 0001:00010570       ?SetWString@KeyValues@@QAEXPBDPB_W@Z 10011570 f   tier1:KeyValues.obj
 0001:00010600       ?SetInt@KeyValues@@QAEXPBDH@Z 10011600 f   tier1:KeyValues.obj
 0001:00010620       ?SetUint64@KeyValues@@QAEXPBD_K@Z 10011620 f   tier1:KeyValues.obj
 0001:00010670       ?SetFloat@KeyValues@@QAEXPBDM@Z 10011670 f   tier1:KeyValues.obj
 0001:00010690       ?SetPtr@KeyValues@@QAEXPBDPAX@Z 10011690 f   tier1:KeyValues.obj
 0001:000106b0       ?RecursiveCopyKeyValues@KeyValues@@AAEXAAV1@@Z 100116b0 f   tier1:KeyValues.obj
 0001:00010970       ?MakeCopy@KeyValues@@QBEPAV1@XZ 10011970 f   tier1:KeyValues.obj
 0001:00010b70       ?IsEmpty@KeyValues@@QAE_NPBD@Z 10011b70 f   tier1:KeyValues.obj
 0001:00010ba0       ?Clear@KeyValues@@QAEXXZ   10011ba0 f   tier1:KeyValues.obj
 0001:00010bd0       ?GetDataType@KeyValues@@QAE?AW4types_t@1@PBD@Z 10011bd0 f   tier1:KeyValues.obj
 0001:00010bf0       ?deleteThis@KeyValues@@QAEXXZ 10011bf0 f   tier1:KeyValues.obj
 0001:00010c10       ?Purge@?$CUtlMemory@E@@QAEXXZ 10011c10 f i tier1:KeyValues.obj
 0001:00010c40       ??$GetType@E@CUtlBuffer@@IAEXAAEPBD@Z 10011c40 f i tier1:KeyValues.obj
 0001:00010ca0       ??$GetType@H@CUtlBuffer@@IAEXAAHPBD@Z 10011ca0 f i tier1:KeyValues.obj
 0001:00010d00       ??$GetType@I@CUtlBuffer@@IAEXAAIPBD@Z 10011d00 f i tier1:KeyValues.obj
 0001:00010d60       ??$GetType@M@CUtlBuffer@@IAEXAAMPBD@Z 10011d60 f i tier1:KeyValues.obj
 0001:00010dc0       ??$GetType@N@CUtlBuffer@@IAEXAANPBD@Z 10011dc0 f i tier1:KeyValues.obj
 0001:00010e20       ?Base@?$CUtlVector@PAVKeyValues@@V?$CUtlMemory@PAVKeyValues@@@@@@QAEPAPAVKeyValues@@XZ 10011e20 f i tier1:KeyValues.obj
 0001:00010e30       ?ResetDbgInfo@?$CUtlVector@PAVKeyValues@@V?$CUtlMemory@PAVKeyValues@@@@@@IAEXXZ 10011e30 f i tier1:KeyValues.obj
 0001:00010e40       ??$PutTypeBin@E@CUtlBuffer@@IAEXE@Z 10011e40 f i tier1:KeyValues.obj
 0001:00010e70       ??$PutTypeBin@H@CUtlBuffer@@IAEXH@Z 10011e70 f i tier1:KeyValues.obj
 0001:00010ec0       ??$PutTypeBin@I@CUtlBuffer@@IAEXI@Z 10011ec0 f i tier1:KeyValues.obj
 0001:00010f10       ??$PutTypeBin@M@CUtlBuffer@@IAEXM@Z 10011f10 f i tier1:KeyValues.obj
 0001:00010f60       ??$PutTypeBin@N@CUtlBuffer@@IAEXN@Z 10011f60 f i tier1:KeyValues.obj
 0001:00010fb0       ??0?$CUtlMemory@PAVKeyValues@@@@QAE@HH@Z 10011fb0 f i tier1:KeyValues.obj
 0001:00010ff0       ?Element@?$CUtlVector@PAVKeyValues@@V?$CUtlMemory@PAVKeyValues@@@@@@QAEAAPAVKeyValues@@H@Z 10011ff0 f i tier1:KeyValues.obj
 0001:00011000       ?RemoveAll@?$CUtlVector@PAVKeyValues@@V?$CUtlMemory@PAVKeyValues@@@@@@QAEXXZ 10012000 f i tier1:KeyValues.obj
 0001:00011010       ?ShiftElementsRight@?$CUtlVector@PAVKeyValues@@V?$CUtlMemory@PAVKeyValues@@@@@@IAEXHH@Z 10012010 f i tier1:KeyValues.obj
 0001:00011050       ?Purge@?$CUtlMemory@PAVKeyValues@@@@QAEXXZ 10012050 f i tier1:KeyValues.obj
 0001:00011080       ?Grow@?$CUtlMemory@PAVKeyValues@@@@QAEXH@Z 10012080 f i tier1:KeyValues.obj
 0001:000110f0       ?GetUnsignedChar@CUtlBuffer@@QAEEXZ 100120f0 f i tier1:KeyValues.obj
 0001:00011150       ?GetInt@CUtlBuffer@@QAEHXZ 10012150 f i tier1:KeyValues.obj
 0001:000111b0       ?GetUnsignedInt@CUtlBuffer@@QAEIXZ 100121b0 f i tier1:KeyValues.obj
 0001:00011210       ?GetFloat@CUtlBuffer@@QAEMXZ 10012210 f i tier1:KeyValues.obj
 0001:00011280       ?GetDouble@CUtlBuffer@@QAENXZ 10012280 f i tier1:KeyValues.obj
 0001:000112e0       ??0KeyValues@@QAE@PBD00@Z  100122e0 f   tier1:KeyValues.obj
 0001:00011340       ??0KeyValues@@QAE@PBD0PB_W@Z 10012340 f   tier1:KeyValues.obj
 0001:000113a0       ??0KeyValues@@QAE@PBD0H@Z  100123a0 f   tier1:KeyValues.obj
 0001:00011410       ??0KeyValues@@QAE@PBD0000@Z 10012410 f   tier1:KeyValues.obj
 0001:00011480       ??0KeyValues@@QAE@PBD0H0H@Z 10012480 f   tier1:KeyValues.obj
 0001:00011510       ?RemoveEverything@KeyValues@@AAEXXZ 10012510 f   tier1:KeyValues.obj
 0001:000115b0       ?RecursiveSaveToFile@KeyValues@@QAEXAAVCUtlBuffer@@H@Z 100125b0 f   tier1:KeyValues.obj
 0001:000115d0       ?SaveToFile@KeyValues@@QAE_NPAVIBaseFileSystem@@PBD1@Z 100125d0 f   tier1:KeyValues.obj
 0001:00011650       ?CreateKey@KeyValues@@AAEPAV1@PBD@Z 10012650 f   tier1:KeyValues.obj
 0001:00011720       ?GetString@KeyValues@@QAEPBDPBD0@Z 10012720 f   tier1:KeyValues.obj
 0001:00011890       ?GetWString@KeyValues@@QAEPB_WPBDPB_W@Z 10012890 f   tier1:KeyValues.obj
 0001:00011a10       ??4KeyValues@@QAEAAV0@AAV0@@Z 10012a10 f   tier1:KeyValues.obj
 0001:00011a60       ?RecursiveLoadFromBuffer@KeyValues@@AAEXPBDAAVCUtlBuffer@@@Z 10012a60 f   tier1:KeyValues.obj
 0001:00011c90       ?ReadAsBinary@KeyValues@@QAE_NAAVCUtlBuffer@@@Z 10012c90 f   tier1:KeyValues.obj
 0001:00011fa0       ??1?$CUtlMemory@E@@QAE@XZ  10012fa0 f i tier1:KeyValues.obj
 0001:00011fd0       ??$PutType@E@CUtlBuffer@@IAEXEPBD@Z 10012fd0 f i tier1:KeyValues.obj
 0001:00012020       ??$PutType@H@CUtlBuffer@@IAEXHPBD@Z 10013020 f i tier1:KeyValues.obj
 0001:00012090       ??$PutType@I@CUtlBuffer@@IAEXIPBD@Z 10013090 f i tier1:KeyValues.obj
 0001:00012100       ??$PutType@M@CUtlBuffer@@IAEXMPBD@Z 10013100 f i tier1:KeyValues.obj
 0001:00012170       ??$PutType@N@CUtlBuffer@@IAEXNPBD@Z 10013170 f i tier1:KeyValues.obj
 0001:000121e0       ??A?$CUtlVector@PAVKeyValues@@V?$CUtlMemory@PAVKeyValues@@@@@@QAEAAPAVKeyValues@@H@Z 100131e0 f i tier1:KeyValues.obj
 0001:000121f0       ?Purge@?$CUtlVector@PAVKeyValues@@V?$CUtlMemory@PAVKeyValues@@@@@@QAEXXZ 100131f0 f i tier1:KeyValues.obj
 0001:00012240       ??1?$CUtlMemory@PAVKeyValues@@@@QAE@XZ 10013240 f i tier1:KeyValues.obj
 0001:00012270       ?GrowVector@?$CUtlVector@PAVKeyValues@@V?$CUtlMemory@PAVKeyValues@@@@@@IAEXH@Z 10013270 f i tier1:KeyValues.obj
 0001:000122b0       ?PutUnsignedChar@CUtlBuffer@@QAEXE@Z 100132b0 f i tier1:KeyValues.obj
 0001:00012300       ?PutInt@CUtlBuffer@@QAEXH@Z 10013300 f i tier1:KeyValues.obj
 0001:00012320       ?PutUnsignedInt@CUtlBuffer@@QAEXI@Z 10013320 f i tier1:KeyValues.obj
 0001:00012340       ?PutFloat@CUtlBuffer@@QAEXM@Z 10013340 f i tier1:KeyValues.obj
 0001:00012360       ?PutDouble@CUtlBuffer@@QAEXN@Z 10013360 f i tier1:KeyValues.obj
 0001:00012380       ?CreateNewKey@KeyValues@@QAEPAV1@XZ 10013380 f   tier1:KeyValues.obj
 0001:00012410       ?AppendIncludedKeys@KeyValues@@AAEXAAV?$CUtlVector@PAVKeyValues@@V?$CUtlMemory@PAVKeyValues@@@@@@@Z 10013410 f   tier1:KeyValues.obj
 0001:00012460       ??1CUtlBuffer@@QAE@XZ      10013460 f i tier1:KeyValues.obj
 0001:00012490       ?WriteAsBinary@KeyValues@@QAE_NAAVCUtlBuffer@@@Z 10013490 f   tier1:KeyValues.obj
 0001:00012660       ??0?$CUtlVector@PAVKeyValues@@V?$CUtlMemory@PAVKeyValues@@@@@@QAE@HH@Z 10013660 f i tier1:KeyValues.obj
 0001:000126b0       ??1?$CUtlVector@PAVKeyValues@@V?$CUtlMemory@PAVKeyValues@@@@@@QAE@XZ 100136b0 f i tier1:KeyValues.obj
 0001:00012740       ?InsertBefore@?$CUtlVector@PAVKeyValues@@V?$CUtlMemory@PAVKeyValues@@@@@@QAEHHABQAVKeyValues@@@Z 10013740 f i tier1:KeyValues.obj
 0001:000127b0       ?AddToTail@?$CUtlVector@PAVKeyValues@@V?$CUtlMemory@PAVKeyValues@@@@@@QAEHABQAVKeyValues@@@Z 100137b0 f i tier1:KeyValues.obj
 0001:000127d0       ?ParseIncludedKeys@KeyValues@@AAEXPBD0PAVIBaseFileSystem@@0AAV?$CUtlVector@PAVKeyValues@@V?$CUtlMemory@PAVKeyValues@@@@@@@Z 100137d0 f   tier1:KeyValues.obj
 0001:000129c0       ?LoadFromBuffer@KeyValues@@QAE_NPBDAAVCUtlBuffer@@PAVIBaseFileSystem@@0@Z 100139c0 f   tier1:KeyValues.obj
 0001:00012bf0       ?LoadFromBuffer@KeyValues@@QAE_NPBD0PAVIBaseFileSystem@@0@Z 10013bf0 f   tier1:KeyValues.obj
 0001:00012cb0       ??0InterfaceReg@@QAE@P6APAXXZPBD@Z 10013cb0 f   tier1:interface.obj
 0001:00012ce0       _CreateInterface           10013ce0 f   tier1:interface.obj
 0001:00012dc0       ?Sys_LoadLibrary@@YAPAUHINSTANCE__@@PBD@Z 10013dc0 f   tier1:interface.obj
 0001:00012e50       ?Sys_LoadModule@@YAPAVCSysModule@@PBD@Z 10013e50 f   tier1:interface.obj
 0001:00012f40       ?Sys_UnloadModule@@YAXPAVCSysModule@@@Z 10013f40 f   tier1:interface.obj
 0001:00012f60       ?Sys_GetFactory@@YAP6APAXPBDPAH@ZPAVCSysModule@@@Z 10013f60 f   tier1:interface.obj
 0001:00012f80       ?Sys_GetFactoryThis@@YAP6APAXPBDPAH@ZXZ 10013f80 f   tier1:interface.obj
 0001:00012f90       ?Sys_GetFactory@@YAP6APAXPBDPAH@Z0@Z 10013f90 f   tier1:interface.obj
 0001:00012fb0       ?Sys_LoadInterface@@YA_NPBD0PAPAVCSysModule@@PAPAX@Z 10013fb0 f   tier1:interface.obj
 0001:00013010       ?TellGet@CUtlBuffer@@QBEHXZ 10014010 f i tier1:utlbuffer.obj
 0001:00013020       ?TellPut@CUtlBuffer@@QBEHXZ 10014020 f i tier1:utlbuffer.obj
 0001:00013030       ?TellMaxPut@CUtlBuffer@@QBEHXZ 10014030 f i tier1:utlbuffer.obj
 0001:00013040       ?IsGrowable@CUtlBuffer@@QBE_NXZ 10014040 f i tier1:utlbuffer.obj
 0001:00013050       ?ContainsCRLF@CUtlBuffer@@QBE_NXZ 10014050 f i tier1:utlbuffer.obj
 0001:00013070       ?IsReadOnly@CUtlBuffer@@QBE_NXZ 10014070 f i tier1:utlbuffer.obj
 0001:00013080       ?V_strcmp@@YAHPBD0@Z       10014080 f i tier1:utlbuffer.obj
 0001:000130c0       ?GetCStringCharConversion@@YAPAVCUtlCharConversion@@XZ 100140c0 f   tier1:utlbuffer.obj
 0001:000130d0       ?GetNoEscCharConversion@@YAPAVCUtlCharConversion@@XZ 100140d0 f   tier1:utlbuffer.obj
 0001:000130e0       ?FindConversion@CUtlCStringConversion@@UAEDPBDPAH@Z 100140e0 f   tier1:utlbuffer.obj
 0001:00013100       ??0CUtlCharConversion@@QAE@DPBDHPAUConversionArray_t@0@@Z 10014100 f   tier1:utlbuffer.obj
 0001:000131a0       ?GetEscapeChar@CUtlCharConversion@@QBEDXZ 100141a0 f   tier1:utlbuffer.obj
 0001:000131b0       ?GetDelimiter@CUtlCharConversion@@QBEPBDXZ 100141b0 f   tier1:utlbuffer.obj
 0001:000131c0       ?GetDelimiterLength@CUtlCharConversion@@QBEHXZ 100141c0 f   tier1:utlbuffer.obj
 0001:000131d0       ?GetConversionString@CUtlCharConversion@@QBEPBDD@Z 100141d0 f   tier1:utlbuffer.obj
 0001:000131f0       ?GetConversionLength@CUtlCharConversion@@QBEHD@Z 100141f0 f   tier1:utlbuffer.obj
 0001:00013210       ?MaxConversionLength@CUtlCharConversion@@QBEHXZ 10014210 f   tier1:utlbuffer.obj
 0001:00013220       ?FindConversion@CUtlCharConversion@@UAEDPBDPAH@Z 10014220 f   tier1:utlbuffer.obj
 0001:000132a0       ?SetBufferType@CUtlBuffer@@QAEX_N0@Z 100142a0 f   tier1:utlbuffer.obj
 0001:000132d0       ?SeekGet@CUtlBuffer@@QAEXW4SeekType_t@1@H@Z 100142d0 f   tier1:utlbuffer.obj
 0001:00013310       ?SetOverflowFuncs@CUtlBuffer@@IAEXP81@AE_NH@Z0@Z 10014310 f   tier1:utlbuffer.obj
 0001:00013330       ?OnPutOverflow@CUtlBuffer@@IAE_NH@Z 10014330 f   tier1:utlbuffer.obj
 0001:00013340       ?OnGetOverflow@CUtlBuffer@@IAE_NH@Z 10014340 f   tier1:utlbuffer.obj
 0001:00013350       ?GetOverflow@CUtlBuffer@@IAE_NH@Z 10014350 f   tier1:utlbuffer.obj
 0001:00013360       ?SetLittleEndian@CUtlBuffer@@QAEX_N@Z 10014360 f   tier1:utlbuffer.obj
 0001:00013370       ??0?$CUtlMemory@E@@QAE@PAEH@Z 10014370 f i tier1:utlbuffer.obj
 0001:00013390       ?Base@?$CUtlMemory@E@@QAEPAEXZ 10014390 f i tier1:utlbuffer.obj
 0001:000133a0       ?NumAllocated@?$CUtlMemory@E@@QBEHXZ 100143a0 f i tier1:utlbuffer.obj
 0001:000133b0       ?ValidateGrowSize@?$CUtlMemory@E@@IAEXXZ 100143b0 f i tier1:utlbuffer.obj
 0001:000133c0       ?WasLastCharacterCR@CUtlBuffer@@IAE_NXZ 100143c0 f i tier1:utlbuffer.obj
 0001:000133e0       ?Base@CUtlBuffer@@QAEPAXXZ 100143e0 f i tier1:utlbuffer.obj
 0001:000133f0       ?Size@CUtlBuffer@@QBEHXZ   100143f0 f i tier1:utlbuffer.obj
 0001:00013400       ??0CUtlNoEscConversion@@QAE@DPBDHPAUConversionArray_t@CUtlCharConversion@@@Z 10014400 f i tier1:utlbuffer.obj
 0001:00013430       ?FindConversion@CUtlNoEscConversion@@UAEDPBDPAH@Z 10014430 f i tier1:utlbuffer.obj
 0001:00013450       ??0CUtlCStringConversion@@QAE@DPBDHPAUConversionArray_t@CUtlCharConversion@@@Z 10014450 f   tier1:utlbuffer.obj
 0001:000134b0       ?CheckGet@CUtlBuffer@@IAE_NH@Z 100144b0 f   tier1:utlbuffer.obj
 0001:00013510       ?CheckPeekGet@CUtlBuffer@@IAE_NHH@Z 10014510 f   tier1:utlbuffer.obj
 0001:00013540       ?CheckArbitraryPeekGet@CUtlBuffer@@IAE_NHAAH@Z 10014540 f   tier1:utlbuffer.obj
 0001:000135b0       ?PeekGet@CUtlBuffer@@QAEPBXHH@Z 100145b0 f   tier1:utlbuffer.obj
 0001:000135f0       ?GetToken@CUtlBuffer@@QAE_NPBD@Z 100145f0 f   tier1:utlbuffer.obj
 0001:00013730       ?CheckPut@CUtlBuffer@@IAE_NH@Z 10014730 f   tier1:utlbuffer.obj
 0001:00013780       ?AddNullTermination@CUtlBuffer@@IAEXXZ 10014780 f   tier1:utlbuffer.obj
 0001:000137d0       ??0?$CUtlMemory@E@@QAE@HH@Z 100147d0 f i tier1:utlbuffer.obj
 0001:00013810       ?ConvertToGrowableMemory@?$CUtlMemory@E@@QAEXH@Z 10014810 f i tier1:utlbuffer.obj
 0001:00013860       ?Grow@?$CUtlMemory@E@@QAEXH@Z 10014860 f i tier1:utlbuffer.obj
 0001:000138d0       ?EnsureCapacity@?$CUtlMemory@E@@QAEXH@Z 100148d0 f i tier1:utlbuffer.obj
 0001:00013920       ??$GetType@D@CUtlBuffer@@IAEXAADPBD@Z 10014920 f i tier1:utlbuffer.obj
 0001:000139b0       ?GetChar@CUtlBuffer@@QAEDXZ 100149b0 f i tier1:utlbuffer.obj
 0001:000139d0       ?Purge@CUtlBuffer@@QAEXXZ  100149d0 f i tier1:utlbuffer.obj
 0001:00013a10       ?EnsureCapacity@CUtlBuffer@@QAEXH@Z 10014a10 f   tier1:utlbuffer.obj
 0001:00013a70       ?Get@CUtlBuffer@@QAEXPAXH@Z 10014a70 f   tier1:utlbuffer.obj
 0001:00013ae0       ?GetUpTo@CUtlBuffer@@QAEHPAXH@Z 10014ae0 f   tier1:utlbuffer.obj
 0001:00013b30       ?EatWhiteSpace@CUtlBuffer@@QAEXXZ 10014b30 f   tier1:utlbuffer.obj
 0001:00013b90       ?EatCPPComment@CUtlBuffer@@QAE_NXZ 10014b90 f   tier1:utlbuffer.obj
 0001:00013c20       ?PeekWhiteSpace@CUtlBuffer@@IAEHH@Z 10014c20 f   tier1:utlbuffer.obj
 0001:00013cc0       ?PeekStringLength@CUtlBuffer@@QAEHXZ 10014cc0 f   tier1:utlbuffer.obj
 0001:00013e10       ?PeekLineLength@CUtlBuffer@@IAEHXZ 10014e10 f   tier1:utlbuffer.obj
 0001:00013f10       ?PeekStringMatch@CUtlBuffer@@IAE_NHPBDH@Z 10014f10 f   tier1:utlbuffer.obj
 0001:00013f70       ?PeekDelimitedStringLength@CUtlBuffer@@QAEHPAVCUtlCharConversion@@_N@Z 10014f70 f   tier1:utlbuffer.obj
 0001:00014130       ?GetString@CUtlBuffer@@QAEXPADH@Z 10015130 f   tier1:utlbuffer.obj
 0001:000141f0       ?GetLine@CUtlBuffer@@QAEXPADH@Z 100151f0 f   tier1:utlbuffer.obj
 0001:00014280       ?GetDelimitedCharInternal@CUtlBuffer@@IAEDPAVCUtlCharConversion@@@Z 10015280 f   tier1:utlbuffer.obj
 0001:00014300       ?GetDelimitedChar@CUtlBuffer@@QAEDPAVCUtlCharConversion@@@Z 10015300 f   tier1:utlbuffer.obj
 0001:00014330       ?GetDelimitedString@CUtlBuffer@@QAEXPAVCUtlCharConversion@@PADH@Z 10015330 f   tier1:utlbuffer.obj
 0001:00014460       ?VaScanf@CUtlBuffer@@QAEHPBDPAD@Z 10015460 f   tier1:utlbuffer.obj
 0001:00014710       ?Scanf@CUtlBuffer@@QAAHPBDZZ 10015710 f   tier1:utlbuffer.obj
 0001:00014730       ?ParseToken@CUtlBuffer@@QAE_NPBD0PADH@Z 10015730 f   tier1:utlbuffer.obj
 0001:000148a0       ?Put@CUtlBuffer@@QAEXPBXH@Z 100158a0 f   tier1:utlbuffer.obj
 0001:00014910       ?PutOverflow@CUtlBuffer@@IAE_NH@Z 10015910 f   tier1:utlbuffer.obj
 0001:000149c0       ?SeekPut@CUtlBuffer@@QAEXW4SeekType_t@1@H@Z 100159c0 f   tier1:utlbuffer.obj
 0001:00014a40       ?SetExternalBuffer@?$CUtlMemory@E@@QAEXPAEH@Z 10015a40 f i tier1:utlbuffer.obj
 0001:00014a90       ??$PutTypeBin@D@CUtlBuffer@@IAEXD@Z 10015a90 f i tier1:utlbuffer.obj
 0001:00014b30       ?PutTabs@CUtlBuffer@@IAEXXZ 10015b30 f i tier1:utlbuffer.obj
 0001:00014bf0       ?PutChar@CUtlBuffer@@QAEXD@Z 10015bf0 f i tier1:utlbuffer.obj
 0001:00014c30       ??0CUtlBuffer@@QAE@HHH@Z   10015c30 f   tier1:utlbuffer.obj
 0001:00014ce0       ??0CUtlBuffer@@QAE@PBXHH@Z 10015ce0 f   tier1:utlbuffer.obj
 0001:00014d90       ?SetExternalBuffer@CUtlBuffer@@QAEXPAXHHH@Z 10015d90 f   tier1:utlbuffer.obj
 0001:00014e30       ?PutString@CUtlBuffer@@QAEXPBD@Z 10015e30 f   tier1:utlbuffer.obj
 0001:00014f10       ?PutDelimitedCharInternal@CUtlBuffer@@IAEXPAVCUtlCharConversion@@D@Z 10015f10 f i tier1:utlbuffer.obj
 0001:00014fc0       ?PutDelimitedChar@CUtlBuffer@@QAEXPAVCUtlCharConversion@@D@Z 10015fc0 f   tier1:utlbuffer.obj
 0001:00015020       ?PutDelimitedString@CUtlBuffer@@QAEXPAVCUtlCharConversion@@PBD@Z 10016020 f   tier1:utlbuffer.obj
 0001:00015190       ?VaPrintf@CUtlBuffer@@QAEXPBDPAD@Z 10016190 f   tier1:utlbuffer.obj
 0001:000151f0       ?Printf@CUtlBuffer@@QAAXPBDZZ 100161f0 f   tier1:utlbuffer.obj
 0001:00015240       ?ConvertCRLF@CUtlBuffer@@QAE_NAAV1@@Z 10016240 f   tier1:utlbuffer.obj
 0001:00015480       _strrchr                   10016480 f   LIBCMT:strrchr.obj
 0001:000154ad       ?_JumpToContinuation@@YGXPAXPAUEHRegistrationNode@@@Z 100164ad f   LIBCMT:_trnsctrl_.obj
 0001:000154df       ?_CallMemberFunction0@@YGXPAX0@Z 100164df f   LIBCMT:_trnsctrl_.obj
 0001:000154e6       ?_CallMemberFunction1@@YGXPAX00@Z 100164e6 f   LIBCMT:_trnsctrl_.obj
 0001:000154ed       ?_CallMemberFunction2@@YGXPAX00H@Z 100164ed f   LIBCMT:_trnsctrl_.obj
 0001:000154f4       ?_UnwindNestedFrames@@YGXPAUEHRegistrationNode@@PAUEHExceptionRecord@@@Z 100164f4 f   LIBCMT:_trnsctrl_.obj
 0001:00015548       ___CxxFrameHandler         10016548 f   LIBCMT:_trnsctrl_.obj
 0001:0001557e       ___CxxFrameHandler3        1001657e f   LIBCMT:_trnsctrl_.obj
 0001:000155b4       ___CxxFrameHandler2        100165b4 f   LIBCMT:_trnsctrl_.obj
 0001:000155ea       ___CxxLongjmpUnwind@4      100165ea f   LIBCMT:_trnsctrl_.obj
 0001:0001563c       ?_CallSETranslator@@YAHPAUEHExceptionRecord@@PAUEHRegistrationNode@@PAX2PBU_s_FuncInfo@@H1@Z 1001663c f   LIBCMT:_trnsctrl_.obj
 0001:000157b2       ?_GetRangeOfTrysToCheck@@YAPBU_s_TryBlockMapEntry@@PBU_s_FuncInfo@@HHPAI1@Z 100167b2 f   LIBCMT:_trnsctrl_.obj
 0001:00015825       __CreateFrameInfo          10016825 f   LIBCMT:_trnsctrl_.obj
 0001:00015851       __IsExceptionObjectToBeDestroyed 10016851 f   LIBCMT:_trnsctrl_.obj
 0001:00015878       __FindAndUnlinkFrame       10016878 f   LIBCMT:_trnsctrl_.obj
 0001:000158ca       ?_CallCatchBlock2@@YAPAXPAUEHRegistrationNode@@PBU_s_FuncInfo@@PAXHK@Z 100168ca f   LIBCMT:_trnsctrl_.obj
 0001:0001592a       @__security_check_cookie@4 1001692a f   LIBCMT:secchk.obj
 0001:00015940       _memset                    10016940 f   LIBCMT:memset.obj
 0001:000159ba       __vsnprintf_l              100169ba f   LIBCMT:vsnprint.obj
 0001:00015a66       __vsnprintf                10016a66 f   LIBCMT:vsnprint.obj
 0001:00015a83       __cfltcvt_init             10016a83 f   LIBCMT:_fpinit_.obj
 0001:00015ae3       ___setfflag                10016ae3 f   LIBCMT:_fpinit_.obj
 0001:00015af8       __fpmath                   10016af8 f   LIBCMT:_fpinit_.obj
 0001:00015b20       _memmove                   10016b20 f   LIBCMT:memmove.obj
 0001:00015e81       _srand                     10016e81 f   LIBCMT:rand.obj
 0001:00015e93       _rand                      10016e93 f   LIBCMT:rand.obj
 0001:00015eb4       ?name@type_info@@QBEPBDPAU__type_info_node@@@Z 10016eb4 f   LIBCMT:typinfo.obj
 0001:00015ec8       ??1type_info@@UAE@XZ       10016ec8 f   LIBCMT:typinfo.obj
 0001:00015ed8       ??_Gtype_info@@UAEPAXI@Z   10016ed8 f i LIBCMT:typinfo.obj
 0001:00015ed8       ??_Etype_info@@UAEPAXI@Z   10016ed8 f i LIBCMT:typinfo.obj
 0001:00015ef9       ?_name_internal_method@type_info@@QBEPBDPAU__type_info_node@@@Z 10016ef9 f   LIBCMT:typinfo.obj
 0001:00015f0d       ?_type_info_dtor_internal_method@type_info@@QAEXXZ 10016f0d f   LIBCMT:typinfo.obj
 0001:00015f17       ??8type_info@@QBE_NABV0@@Z 10016f17 f   LIBCMT:typinfo.obj
 0001:00015f37       ??9type_info@@QBE_NABV0@@Z 10016f37 f   LIBCMT:typinfo.obj
 0001:00015f58       ?before@type_info@@QBEHABV1@@Z 10016f58 f   LIBCMT:typinfo.obj
 0001:00015f7c       ?raw_name@type_info@@QBEPBDXZ 10016f7c f   LIBCMT:typinfo.obj
 0001:00015f80       ??0type_info@@AAE@ABV0@@Z  10016f80 f   LIBCMT:typinfo.obj
 0001:00015f8b       ??4type_info@@AAEAAV0@ABV0@@Z 10016f8b f   LIBCMT:typinfo.obj
 0001:00015f90       __purecall                 10016f90 f   LIBCMT:purevirt.obj
 0001:00015fba       __set_purecall_handler     10016fba f   LIBCMT:purevirt.obj
 0001:00015fe1       __get_purecall_handler     10016fe1 f   LIBCMT:purevirt.obj
 0001:000160a5       ___onexitinit              100170a5 f   LIBCMT:onexit.obj
 0001:000160d6       __onexit                   100170d6 f   LIBCMT:onexit.obj
 0001:00016112       _atexit                    10017112 f   LIBCMT:onexit.obj
 0001:00016129       __CRT_INIT@12              10017129 f   LIBCMT:dllcrt0.obj
 0001:00016383       __DllMainCRTStartup@12     10017383 f   LIBCMT:dllcrt0.obj
 0001:000163b0       _acos                      100173b0 f   LIBCMT:_acos_.obj
 0001:000163f0       __CIacos                   100173f0 f   LIBCMT:_acos_.obj
 0001:0001642b       __CIacos_default           1001742b f   LIBCMT:_acos_.obj
 0001:0001643f       __acos_default             1001743f     LIBCMT:_acos_.obj
 0001:00016500       _asin                      10017500 f   LIBCMT:_asin_.obj
 0001:00016540       __CIasin                   10017540 f   LIBCMT:_asin_.obj
 0001:0001657b       __CIasin_default           1001757b f   LIBCMT:_asin_.obj
 0001:0001658f       __asin_default             1001758f     LIBCMT:_asin_.obj
 0001:00016650       _atan2                     10017650 f   LIBCMT:_87ctriga_.obj
 0001:0001665a       __CIatan2                  1001765a f   LIBCMT:_87ctriga_.obj
 0001:00016670       _cos                       10017670 f   LIBCMT:_cos_.obj
 0001:000166b0       __CIcos                    100176b0 f   LIBCMT:_cos_.obj
 0001:000166eb       __CIcos_default            100176eb f   LIBCMT:_cos_.obj
 0001:000166ff       __cos_default              100176ff     LIBCMT:_cos_.obj
 0001:000167a0       _fmod                      100177a0 f   LIBCMT:_87fmod_.obj
 0001:000167aa       __CIfmod                   100177aa f   LIBCMT:_87fmod_.obj
 0001:000167d0       _log                       100177d0 f   LIBCMT:_log_.obj
 0001:00016810       __CIlog                    10017810 f   LIBCMT:_log_.obj
 0001:0001684b       __CIlog_default            1001784b f   LIBCMT:_log_.obj
 0001:0001685f       __log_default              1001785f     LIBCMT:_log_.obj
 0001:00016920       _pow                       10017920 f   LIBCMT:_pow_.obj
 0001:00016960       __CIpow                    10017960 f   LIBCMT:_pow_.obj
 0001:0001699b       __CIpow_default            1001799b f   LIBCMT:_pow_.obj
 0001:000169b4       __pow_default              100179b4     LIBCMT:_pow_.obj
 0001:00016bb0       _sin                       10017bb0 f   LIBCMT:_sin_.obj
 0001:00016bf0       __CIsin                    10017bf0 f   LIBCMT:_sin_.obj
 0001:00016c2b       __CIsin_default            10017c2b f   LIBCMT:_sin_.obj
 0001:00016c3f       __sin_default              10017c3f     LIBCMT:_sin_.obj
 0001:00016ce0       __CIsqrt                   10017ce0 f   LIBCMT:_sqrt_.obj
 0001:00016cf4       _sqrt                      10017cf4     LIBCMT:_sqrt_.obj
 0001:00016da0       __ftol2_sse                10017da0 f   LIBCMT:ftol2.obj
 0001:00016da9       __ftol2_pentium4           10017da9 f   LIBCMT:ftol2.obj
 0001:00016dbc       __ftol2_sse_excpt          10017dbc f   LIBCMT:ftol2.obj
 0001:00016dd6       __ftol2                    10017dd6 f   LIBCMT:ftol2.obj
 0001:00016e50       _floor                     10017e50 f   LIBCMT:_floor_pentium4_.obj
 0001:00016e90       __floor_pentium4           10017e90 f   LIBCMT:_floor_pentium4_.obj
 0001:00016f80       __alloca_probe_16          10017f80 f   LIBCMT:alloca16.obj
 0001:00016f96       __alloca_probe_8           10017f96     LIBCMT:alloca16.obj
 0001:00016fae       ??0_LocaleUpdate@@QAE@PAUlocaleinfo_struct@@@Z 10017fae f i LIBCMT:atof.obj
 0001:00017035       ??1_LocaleUpdate@@QAE@XZ   10018035 f i LIBCMT:atof.obj
 0001:00017043       ?GetLocaleT@_LocaleUpdate@@QAEPAUlocaleinfo_struct@@XZ 10018043 f i LIBCMT:atof.obj
 0001:00017046       __atof_l                   10018046 f   LIBCMT:atof.obj
 0001:000170f1       _atof                      100180f1 f   LIBCMT:atof.obj
 0001:00017104       ___strgtold12              10018104 f   LIBCMT:atof.obj
 0001:00017146       ___STRINGTOLD              10018146 f   LIBCMT:atof.obj
 0001:00017180       _memcpy                    10018180 f   LIBCMT:memcpy.obj
 0001:00017500       _strchr                    10018500 f   LIBCMT:strchr.obj
 0001:00017506       ___from_strstr_to_strchr   10018506     LIBCMT:strchr.obj
 0001:000175c0       _strstr                    100185c0 f   LIBCMT:strstr.obj
 0001:00017646       __tolower                  10018646 f   LIBCMT:tolower.obj
 0001:00017653       __tolower_l                10018653 f   LIBCMT:tolower.obj
 0001:00017768       _tolower                   10018768 f   LIBCMT:tolower.obj
 0001:000177a0       _strncat                   100187a0 f   LIBCMT:strncat.obj
 0001:000178e0       _strncpy                   100188e0 f   LIBCMT:strncpy.obj
 0001:00017a04       _wcsncpy                   10018a04 f   LIBCMT:wcsncpy.obj
 0001:00017a50       __allmul                   10018a50 f   LIBCMT:llmul.obj
 0001:00017a90       __allrem                   10018a90 f   LIBCMT:llrem.obj
 0001:00017b50       __alldiv                   10018b50 f   LIBCMT:lldiv.obj
 0001:00017bfa       __validdrive               10018bfa f   LIBCMT:getcwd.obj
 0001:00017c54       __getdcwd_nolock           10018c54 f   LIBCMT:getcwd.obj
 0001:00017d78       __getcwd                   10018d78 f   LIBCMT:getcwd.obj
 0001:00017dc1       __getdcwd                  10018dc1 f   LIBCMT:getcwd.obj
 0001:00017e0b       __vswprintf_l              10018e0b f   LIBCMT:vswprint.obj
 0001:00017eab       __vswprintf                10018eab f   LIBCMT:vswprint.obj
 0001:00017ec5       ___vswprintf_l             10018ec5 f   LIBCMT:vswprint.obj
 0001:00017ed0       __vscwprintf_helper        10018ed0 f   LIBCMT:vswprint.obj
 0001:00017f2c       __vscwprintf               10018f2c f   LIBCMT:vswprint.obj
 0001:00017f48       __vscwprintf_l             10018f48 f   LIBCMT:vswprint.obj
 0001:00017f65       __vscwprintf_p             10018f65 f   LIBCMT:vswprint.obj
 0001:00017f81       __vscwprintf_p_l           10018f81 f   LIBCMT:vswprint.obj
 0001:00017f9e       __isalpha_l                10018f9e f i LIBCMT:_ctype.obj
 0001:00017ff4       _isalpha                   10018ff4 f i LIBCMT:_ctype.obj
 0001:00018024       __isupper_l                10019024 f i LIBCMT:_ctype.obj
 0001:00018075       _isupper                   10019075 f i LIBCMT:_ctype.obj
 0001:000180a3       __islower_l                100190a3 f i LIBCMT:_ctype.obj
 0001:000180f4       _islower                   100190f4 f i LIBCMT:_ctype.obj
 0001:00018122       __isdigit_l                10019122 f i LIBCMT:_ctype.obj
 0001:00018173       _isdigit                   10019173 f i LIBCMT:_ctype.obj
 0001:000181a1       __isxdigit_l               100191a1 f i LIBCMT:_ctype.obj
 0001:000181f7       _isxdigit                  100191f7 f i LIBCMT:_ctype.obj
 0001:00018227       __isspace_l                10019227 f i LIBCMT:_ctype.obj
 0001:00018278       _isspace                   10019278 f i LIBCMT:_ctype.obj
 0001:000182a6       __ispunct_l                100192a6 f i LIBCMT:_ctype.obj
 0001:000182f7       _ispunct                   100192f7 f i LIBCMT:_ctype.obj
 0001:00018325       __isalnum_l                10019325 f i LIBCMT:_ctype.obj
 0001:0001837b       _isalnum                   1001937b f i LIBCMT:_ctype.obj
 0001:000183ab       __isprint_l                100193ab f i LIBCMT:_ctype.obj
 0001:00018401       _isprint                   10019401 f i LIBCMT:_ctype.obj
 0001:00018431       __isgraph_l                10019431 f i LIBCMT:_ctype.obj
 0001:00018487       _isgraph                   10019487 f i LIBCMT:_ctype.obj
 0001:000184b7       __iscntrl_l                100194b7 f i LIBCMT:_ctype.obj
 0001:00018508       _iscntrl                   10019508 f i LIBCMT:_ctype.obj
 0001:00018536       ___isascii                 10019536 f i LIBCMT:_ctype.obj
 0001:00018548       ___toascii                 10019548 f i LIBCMT:_ctype.obj
 0001:00018555       __iscsymf_l                10019555 f i LIBCMT:_ctype.obj
 0001:00018578       ___iscsymf                 10019578 f i LIBCMT:_ctype.obj
 0001:00018597       __iscsym_l                 10019597 f i LIBCMT:_ctype.obj
 0001:000185ba       ___iscsym                  100195ba f i LIBCMT:_ctype.obj
 0001:000185db       __wtol                     100195db f   LIBCMT:wtox.obj
 0001:000185f1       __wtol_l                   100195f1 f   LIBCMT:wtox.obj
 0001:0001860a       __wtoi                     1001960a f   LIBCMT:wtox.obj
 0001:00018615       __wtoi_l                   10019615 f   LIBCMT:wtox.obj
 0001:00018620       __wtoi64                   10019620 f   LIBCMT:wtox.obj
 0001:00018636       __wtoi64_l                 10019636 f   LIBCMT:wtox.obj
 0001:0001864f       _atol                      1001964f f   LIBCMT:atox.obj
 0001:00018665       __atol_l                   10019665 f   LIBCMT:atox.obj
 0001:0001867e       _atoi                      1001967e f   LIBCMT:atox.obj
 0001:00018689       __atoi_l                   10019689 f   LIBCMT:atox.obj
 0001:00018694       __atoi64                   10019694 f   LIBCMT:atox.obj
 0001:000186aa       __atoi64_l                 100196aa f   LIBCMT:atox.obj
 0001:00018731       _sscanf                    10019731 f   LIBCMT:sscanf.obj
 0001:00018753       __sscanf_l                 10019753 f   LIBCMT:sscanf.obj
 0001:00018776       _sscanf_s                  10019776 f   LIBCMT:sscanf.obj
 0001:00018798       __sscanf_s_l               10019798 f   LIBCMT:sscanf.obj
 0001:000187bb       __strtod_l                 100197bb f   LIBCMT:strtod.obj
 0001:000188de       _strtod                    100198de f   LIBCMT:strtod.obj
 0001:00018b20       _strtol                    10019b20 f   LIBCMT:strtol.obj
 0001:00018b4b       __strtol_l                 10019b4b f   LIBCMT:strtol.obj
 0001:00018b68       _strtoul                   10019b68 f   LIBCMT:strtol.obj
 0001:00018b94       __strtoul_l                10019b94 f   LIBCMT:strtol.obj
 0001:00018bb1       ??0bad_exception@std@@QAE@PBD@Z 10019bb1 f i LIBCMT:frame.obj
 0001:00018bcf       ??1bad_exception@std@@UAE@XZ 10019bcf f i LIBCMT:frame.obj
 0001:00018bda       ??_Ebad_exception@std@@UAEPAXI@Z 10019bda f i LIBCMT:frame.obj
 0001:00018bda       ??_Gbad_exception@std@@UAEPAXI@Z 10019bda f i LIBCMT:frame.obj
 0001:00018c01       ___TypeMatch               10019c01 f   LIBCMT:frame.obj
 0001:00018c60       ___FrameUnwindFilter       10019c60 f   LIBCMT:frame.obj
 0001:00018caf       ___FrameUnwindToState      10019caf f   LIBCMT:frame.obj
 0001:00018dd0       ___DestructExceptionObject 10019dd0 f   LIBCMT:frame.obj
 0001:00018e25       ___AdjustPointer           10019e25 f   LIBCMT:frame.obj
 0001:00018e4e       ?__uncaught_exception@@YA_NXZ 10019e4e f   LIBCMT:frame.obj
 0001:00018e5f       ___CxxRegisterExceptionObject 10019e5f f   LIBCMT:frame.obj
 0001:00018f15       ___CxxDetectRethrow        10019f15 f   LIBCMT:frame.obj
 0001:00018f66       ___CxxUnregisterExceptionObject 10019f66 f   LIBCMT:frame.obj
 0001:000190a4       ___CxxQueryExceptionSize   1001a0a4 f   LIBCMT:frame.obj
 0001:000190a8       ___CxxCallUnwindDtor       1001a0a8 f   LIBCMT:frame.obj
 0001:000190da       ___CxxCallUnwindDelDtor    1001a0da f   LIBCMT:frame.obj
 0001:0001910d       ___CxxCallUnwindStdDelDtor 1001a10d f   LIBCMT:frame.obj
 0001:0001913f       ___CxxCallUnwindVecDtor    1001a13f f   LIBCMT:frame.obj
 0001:0001926b       ?_is_exception_typeof@@YAHABVtype_info@@PAU_EXCEPTION_POINTERS@@@Z 1001a26b f   LIBCMT:frame.obj
 0001:0001948d       ___BuildCatchObjectHelper  1001a48d f   LIBCMT:frame.obj
 0001:0001960c       ___BuildCatchObject        1001a60c f   LIBCMT:frame.obj
 0001:0001969e       ___CxxExceptionFilter      1001a69e f   LIBCMT:frame.obj
 0001:00019cd6       ??0bad_exception@std@@QAE@ABV01@@Z 1001acd6 f i LIBCMT:frame.obj
 0001:00019cf3       ___InternalCxxFrameHandler 1001acf3 f   LIBCMT:frame.obj
 0001:00019dd9       __encoded_null             1001add9 f   LIBCMT:tidtable.obj
 0001:00019de2       ___crtTlsAlloc@4           1001ade2 f   LIBCMT:tidtable.obj
 0001:00019deb       ___fls_getvalue@4          1001adeb f   LIBCMT:tidtable.obj
 0001:00019e05       ___get_flsindex            1001ae05 f   LIBCMT:tidtable.obj
 0001:00019e0b       ___set_flsgetvalue         1001ae0b f   LIBCMT:tidtable.obj
 0001:00019e3f       ___fls_setvalue@8          1001ae3f f   LIBCMT:tidtable.obj
 0001:00019e5c       __mtterm                   1001ae5c f   LIBCMT:tidtable.obj
 0001:00019e99       __initptd                  1001ae99 f   LIBCMT:tidtable.obj
 0001:00019f4d       __getptd_noexit            1001af4d f   LIBCMT:tidtable.obj
 0001:00019fc6       __getptd                   1001afc6 f   LIBCMT:tidtable.obj
 0001:00019fe0       __freefls@4                1001afe0 f   LIBCMT:tidtable.obj
 0001:0001a10f       __freeptd                  1001b10f f   LIBCMT:tidtable.obj
 0001:0001a17d       ___threadid                1001b17d f   LIBCMT:tidtable.obj
 0001:0001a183       ___threadhandle            1001b183 f   LIBCMT:tidtable.obj
 0001:0001a189       __mtinit                   1001b189 f   LIBCMT:tidtable.obj
 0001:0001a304       ?terminate@@YAXXZ          1001b304 f   LIBCMT:hooks.obj
 0001:0001a33d       ?unexpected@@YAXXZ         1001b33d f   LIBCMT:hooks.obj
 0001:0001a350       ?_inconsistency@@YAXXZ     1001b350 f   LIBCMT:hooks.obj
 0001:0001a388       __initp_eh_hooks           1001b388 f   LIBCMT:hooks.obj
 0001:0001a3a0       __CallSettingFrame@12      1001b3a0 f   LIBCMT:lowhelpr.obj
 0001:0001a3c7       __NLG_Return               1001b3c7     LIBCMT:lowhelpr.obj
 0001:0001a3ec       ___report_gsfailure        1001b3ec f   LIBCMT:gs_report.obj
 0001:0001a4f2       __VEC_memzero              1001b4f2 f   LIBCMT:p4_memset.obj
 0001:0001a5ac       ___sse2_available_init     1001b5ac f   LIBCMT:cpu_disp.obj
 0001:0001a5bc       __flsbuf                   1001b5bc f   LIBCMT:_flsbuf.obj
 0001:0001a7db       _get_int_arg               1001b7db f i LIBCMT:output.obj
 0001:0001a7ed       _get_int64_arg             1001b7ed f i LIBCMT:output.obj
 0001:0001a802       _get_short_arg             1001b802 f i LIBCMT:output.obj
 0001:0001a815       __output_l                 1001b815 f   LIBCMT:output.obj
 0001:0001b41d       __initp_misc_invarg        1001c41d f   LIBCMT:invarg.obj
 0001:0001b42c       __call_reportfault         1001c42c f   LIBCMT:invarg.obj
 0001:0001b555       __set_invalid_parameter_handler 1001c555 f   LIBCMT:invarg.obj
 0001:0001b57c       __get_invalid_parameter_handler 1001c57c f   LIBCMT:invarg.obj
 0001:0001b589       __invoke_watson            1001c589 f   LIBCMT:invarg.obj
 0001:0001b5ae       ?_invoke_watson@@YAXPBG00II@Z 1001c5ae f   LIBCMT:invarg.obj
 0001:0001b5c8       __invalid_parameter        1001c5c8 f   LIBCMT:invarg.obj
 0001:0001b5f5       __invalid_parameter_noinfo 1001c5f5 f   LIBCMT:invarg.obj
 0001:0001b605       __invalid_parameter_noinfo_noreturn 1001c605 f   LIBCMT:invarg.obj
 0001:0001b633       ?_invalid_parameter@@YAXPBG00II@Z 1001c633 f   LIBCMT:invarg.obj
 0001:0001b63e       __get_errno_from_oserr     1001c63e f   LIBCMT:dosmap.obj
 0001:0001b680       __errno                    1001c680 f   LIBCMT:dosmap.obj
 0001:0001b693       ___doserrno                1001c693 f   LIBCMT:dosmap.obj
 0001:0001b6a6       __dosmaperr                1001c6a6 f   LIBCMT:dosmap.obj
 0001:0001b6c9       __set_errno                1001c6c9 f   LIBCMT:dosmap.obj
 0001:0001b6ea       __get_errno                1001c6ea f   LIBCMT:dosmap.obj
 0001:0001b70f       __set_doserrno             1001c70f f   LIBCMT:dosmap.obj
 0001:0001b730       __get_doserrno             1001c730 f   LIBCMT:dosmap.obj
 0001:0001b755       __invoke_watson_if_error   1001c755 f i LIBCMT:cvt.obj
 0001:0001b776       __forcdecpt_l              1001c776 f   LIBCMT:cvt.obj
 0001:0001b7ea       __cropzeros_l              1001c7ea f   LIBCMT:cvt.obj
 0001:0001b86c       __positive                 1001c86c f   LIBCMT:cvt.obj
 0001:0001b888       __fassign_l                1001c888 f   LIBCMT:cvt.obj
 0001:0001b8ca       __fassign                  1001c8ca f   LIBCMT:cvt.obj
 0001:0001b903       __forcdecpt                1001c903 f   LIBCMT:cvt.obj
 0001:0001b916       __cropzeros                1001c916 f   LIBCMT:cvt.obj
 0001:0001ba8a       __cftoe_l                  1001ca8a f   LIBCMT:cvt.obj
 0001:0001bb51       __cftoe                    1001cb51 f   LIBCMT:cvt.obj
 0001:0001bb71       __cftoa_l                  1001cb71 f   LIBCMT:cvt.obj
 0001:0001bee7       __cftoa                    1001cee7 f   LIBCMT:cvt.obj
 0001:0001c00a       __cftof_l                  1001d00a f   LIBCMT:cvt.obj
 0001:0001c0cb       __cftof                    1001d0cb f   LIBCMT:cvt.obj
 0001:0001c0e8       __cftog_l                  1001d0e8 f   LIBCMT:cvt.obj
 0001:0001c1d5       __cftog                    1001d1d5 f   LIBCMT:cvt.obj
 0001:0001c1f5       __cfltcvt_l                1001d1f5 f   LIBCMT:cvt.obj
 0001:0001c27d       __cfltcvt                  1001d27d f   LIBCMT:cvt.obj
 0001:0001c2a0       __initp_misc_cfltcvt_tab   1001d2a0 f   LIBCMT:cmiscdat.obj
 0001:0001c2c3       __setdefaultprecision      1001d2c3 f   LIBCMT:fp8.obj
 0001:0001c2eb       __VEC_memcpy               1001d2eb f   LIBCMT:p4_memcpy.obj
 0001:0001c3ee       ?_Type_info_dtor@type_info@@CAXPAV1@@Z 1001d3ee f   LIBCMT:typname.obj
 0001:0001c45e       ?_Name_base@type_info@@CAPBDPBV1@PAU__type_info_node@@@Z 1001d45e f   LIBCMT:typname.obj
 0001:0001c550       ?_Type_info_dtor_internal@type_info@@CAXPAV1@@Z 1001d550 f   LIBCMT:typname.obj
 0001:0001c5c0       ___unDNameHelper           1001d5c0 f   LIBCMT:typname.obj
 0001:0001c5f3       ?_Name_base_internal@type_info@@CAPBDPBV1@PAU__type_info_node@@@Z 1001d5f3 f   LIBCMT:typname.obj
 0001:0001c6ff       ___clean_type_info_names_internal 1001d6ff f   LIBCMT:typname.obj
 0001:0001c760       _strcmp                    1001d760 f   LIBCMT:strcmp.obj
 0001:0001c7e8       _abort                     1001d7e8 f   LIBCMT:abort.obj
 0001:0001c81b       __set_abort_behavior       1001d81b f   LIBCMT:abort.obj
 0001:0001c83c       __GET_RTERRMSG             1001d83c f   LIBCMT:crt0msg.obj
 0001:0001c862       __NMSG_WRITE               1001d862 f   LIBCMT:crt0msg.obj
 0001:0001ca11       __FF_MSGBANNER             1001da11 f   LIBCMT:crt0msg.obj
 0001:0001ca4a       ___getlocaleinfo           1001da4a f   LIBCMT:inithelp.obj
 0001:0001cbf6       __initp_misc_purevirt      1001dbf6 f   LIBCMT:inithelp.obj
 0001:0001cc05       ___crtCorExitProcess       1001dc05 f   LIBCMT:crt0dat.obj
 0001:0001cc30       ___crtExitProcess          1001dc30 f   LIBCMT:crt0dat.obj
 0001:0001cc48       __lockexit                 1001dc48 f   LIBCMT:crt0dat.obj
 0001:0001cc51       __unlockexit               1001dc51 f   LIBCMT:crt0dat.obj
 0001:0001cc5a       __init_pointers            1001dc5a f   LIBCMT:crt0dat.obj
 0001:0001ccaa       __initterm_e               1001dcaa f   LIBCMT:crt0dat.obj
 0001:0001ccce       __get_wpgmptr              1001dcce f   LIBCMT:crt0dat.obj
 0001:0001ccfe       __get_pgmptr               1001dcfe f   LIBCMT:crt0dat.obj
 0001:0001cd2e       __cinit                    1001dd2e f   LIBCMT:crt0dat.obj
 0001:0001cf05       _exit                      1001df05 f   LIBCMT:crt0dat.obj
 0001:0001cf1b       __exit                     1001df1b f   LIBCMT:crt0dat.obj
 0001:0001cf31       __cexit                    1001df31 f   LIBCMT:crt0dat.obj
 0001:0001cf40       __c_exit                   1001df40 f   LIBCMT:crt0dat.obj
 0001:0001cf4f       __amsg_exit                1001df4f f   LIBCMT:crt0dat.obj
 0001:0001cf70       __SEH_prolog4              1001df70 f   LIBCMT:sehprolg4.obj
 0001:0001cfb5       __SEH_epilog4              1001dfb5 f   LIBCMT:sehprolg4.obj
 0001:0001d000       __except_handler4          1001e000 f   LIBCMT:chandler4.obj
 0001:0001d18f       __ioinit                   1001e18f f   LIBCMT:ioinit.obj
 0001:0001d3d4       __ioterm                   1001e3d4 f   LIBCMT:ioinit.obj
 0001:0001d427       __setenvp                  1001e427 f   LIBCMT:stdenvp.obj
 0001:0001d503       __set_pgmptr               1001e503 f i LIBCMT:stdargv.obj
 0001:0001d6ac       __setargv                  1001e6ac f   LIBCMT:stdargv.obj
 0001:0001d767       ___crtGetEnvironmentStringsA 1001e767 f   LIBCMT:a_env.obj
 0001:0001d7fe       __RTC_Initialize           1001e7fe f   LIBCMT:_initsect_.obj
 0001:0001d824       __RTC_Terminate            1001e824 f   LIBCMT:_initsect_.obj
 0001:0001d870       __XcptFilter               1001e870 f   LIBCMT:winxfltr.obj
 0001:0001d9ba       ___CppXcptFilter           1001e9ba f   LIBCMT:winxfltr.obj
 0001:0001d9da       _DllMain@12                1001e9da f   LIBCMT:dllmain.obj
 0001:0001d9e0       ___security_init_cookie    1001e9e0 f   LIBCMT:gs_support.obj
 0001:0001da7b       __set_SSE2_enable          1001ea7b f   LIBCMT:_mathfcns_.obj
 0001:0001da94       __sse2_mathfcns_init       1001ea94 f   LIBCMT:_mathfcns_.obj
 0001:0001dab0       __CIacos_pentium4          1001eab0 f   LIBCMT:_acos_pentium4_.obj
 0001:0001dac8       __acos_pentium4            1001eac8     LIBCMT:_acos_pentium4_.obj
 0001:0001e010       __trandisp1                1001f010 f   LIBCMT:_87disp_.obj
 0001:0001e077       __trandisp2                1001f077 f   LIBCMT:_87disp_.obj
 0001:0001e103       __rttospopde               1001f103     LIBCMT:_87disp_.obj
 0001:0001e108       __rttospop                 1001f108     LIBCMT:_87disp_.obj
 0001:0001e10a       __rtnospop                 1001f10a     LIBCMT:_87disp_.obj
 0001:0001e10c       __rttosnpop                1001f10c     LIBCMT:_87disp_.obj
 0001:0001e10d       __rtnospopde               1001f10d     LIBCMT:_87disp_.obj
 0001:0001e114       __rtzeropop                1001f114     LIBCMT:_87disp_.obj
 0001:0001e116       __rtzeronpop               1001f116     LIBCMT:_87disp_.obj
 0001:0001e11b       __rtonepop                 1001f11b     LIBCMT:_87disp_.obj
 0001:0001e11d       __rtonenpop                1001f11d     LIBCMT:_87disp_.obj
 0001:0001e122       __tosnan1                  1001f122     LIBCMT:_87disp_.obj
 0001:0001e14d       __nosnan2                  1001f14d     LIBCMT:_87disp_.obj
 0001:0001e14f       __tosnan2                  1001f14f     LIBCMT:_87disp_.obj
 0001:0001e177       __nan2                     1001f177     LIBCMT:_87disp_.obj
 0001:0001e1b6       __rtindfpop                1001f1b6     LIBCMT:_87disp_.obj
 0001:0001e1b8       __rtindfnpop               1001f1b8     LIBCMT:_87disp_.obj
 0001:0001e1c9       __rttosnpopde              1001f1c9     LIBCMT:_87disp_.obj
 0001:0001e1d3       __rtchsifneg               1001f1d3     LIBCMT:_87disp_.obj
 0001:0001e1e0       __startTwoArgErrorHandling 1001f1e0 f   LIBCMT:_genexcep_.obj
 0001:0001e1f7       __startOneArgErrorHandling 1001f1f7 f   LIBCMT:_genexcep_.obj
 0001:0001e240       __twoToTOS                 1001f240 f   LIBCMT:_common_.obj
 0001:0001e255       __load_CW                  1001f255 f   LIBCMT:_common_.obj
 0001:0001e26c       __convertTOStoQNaN         1001f26c f   LIBCMT:_common_.obj
 0001:0001e285       __fload_withFB             1001f285 f   LIBCMT:_common_.obj
 0001:0001e2c8       __checkTOS_withFB          1001f2c8 f   LIBCMT:_common_.obj
 0001:0001e2de       __fast_exit                1001f2de f   LIBCMT:_common_.obj
 0001:0001e2eb       __math_exit                1001f2eb f   LIBCMT:_common_.obj
 0001:0001e315       __check_overflow_exit      1001f315 f   LIBCMT:_common_.obj
 0001:0001e329       __check_range_exit         1001f329 f   LIBCMT:_common_.obj
 0001:0001e3d0       __CIasin_pentium4          1001f3d0 f   LIBCMT:_asin_pentium4_.obj
 0001:0001e3e8       __asin_pentium4            1001f3e8     LIBCMT:_asin_pentium4_.obj
 0001:0001e96c       __fFATN2                   1001f96c     LIBCMT:_87triga_.obj
 0001:0001e9bc       __rtpiby2                  1001f9bc     LIBCMT:_87triga_.obj
 0001:0001ea00       __cintrindisp2             1001fa00 f   LIBCMT:_87cdisp_.obj
 0001:0001ea3e       __cintrindisp1             1001fa3e f   LIBCMT:_87cdisp_.obj
 0001:0001ea7b       __ctrandisp2               1001fa7b f   LIBCMT:_87cdisp_.obj
 0001:0001ec0a       __ctrandisp1               1001fc0a f   LIBCMT:_87cdisp_.obj
 0001:0001ec3d       __fload                    1001fc3d f   LIBCMT:_87cdisp_.obj
 0001:0001ec80       __CIcos_pentium4           1001fc80 f   LIBCMT:_cos_pentium4_.obj
 0001:0001ec98       __cos_pentium4             1001fc98     LIBCMT:_cos_pentium4_.obj
 0001:0001ee30       __CIlog_pentium4           1001fe30 f   LIBCMT:_log_pentium4_.obj
 0001:0001ee48       __log_pentium4             1001fe48     LIBCMT:_log_pentium4_.obj
 0001:0001f0b1       __fFEXP                    100200b1     LIBCMT:_87tran_.obj
 0001:0001f108       __rtinfpopse               10020108     LIBCMT:_87tran_.obj
 0001:0001f10a       __rtinfnpopse              1002010a     LIBCMT:_87tran_.obj
 0001:0001f11a       __fFLN                     1002011a     LIBCMT:_87tran_.obj
 0001:0001f1cf       __rtinfpop                 100201cf     LIBCMT:_87tran_.obj
 0001:0001f1d1       __rtinfnpop                100201d1     LIBCMT:_87tran_.obj
 0001:0001f1ee       __ffexpm1                  100201ee     LIBCMT:_87tran_.obj
 0001:0001f2a0       __CIpow_pentium4           100202a0 f   LIBCMT:_pow_pentium4_.obj
 0001:0001f2b9       __pow_pentium4             100202b9     LIBCMT:_pow_pentium4_.obj
 0001:0001fe00       __d_inttype                10020e00 f   LIBCMT:_powhlp_.obj
 0001:0001fe6a       __powhlp                   10020e6a f   LIBCMT:_powhlp_.obj
 0001:0001ffa0       __CIsin_pentium4           10020fa0 f   LIBCMT:_sin_pentium4_.obj
 0001:0001ffb8       __sin_pentium4             10020fb8     LIBCMT:_sin_pentium4_.obj
 0001:00020168       ___libm_setusermatherr     10021168 f   LIBCMT:_libm_error_.obj
 0001:00020196       ___libm_error_support      10021196 f   LIBCMT:_libm_error_.obj
 0001:00020462       __floor_default            10021462 f   LIBCMT:_floor_.obj
 0001:00020540       __chkstk                   10021540 f   LIBCMT:chkstk.obj
 0001:00020540       __alloca_probe             10021540     LIBCMT:chkstk.obj
 0001:0002078e       ___updatetmbcinfo          1002178e f   LIBCMT:mbctype.obj
 0001:000208ae       __setmbcp_nolock           100218ae f   LIBCMT:mbctype.obj
 0001:00020a97       __getmbcp                  10021a97 f   LIBCMT:mbctype.obj
 0001:00020ad5       __setmbcp                  10021ad5 f   LIBCMT:mbctype.obj
 0001:00020c6f       ___initmbctable            10021c6f f   LIBCMT:mbctype.obj
 0001:00020c8d       ___addlocaleref            10021c8d f   LIBCMT:localref.obj
 0001:00020d1c       ___removelocaleref         10021d1c f   LIBCMT:localref.obj
 0001:00020db5       ___freetlocinfo            10021db5 f   LIBCMT:localref.obj
 0001:00020f00       __updatetlocinfoEx_nolock  10021f00 f   LIBCMT:localref.obj
 0001:00020f4d       ___updatetlocinfo          10021f4d f   LIBCMT:localref.obj
 0001:00020fc6       __fltin2                   10021fc6 f   LIBCMT:_cfin_.obj
 0001:0002106d       __isctype_l                1002206d f   LIBCMT:isctype.obj
 0001:00021125       __isctype                  10022125 f   LIBCMT:isctype.obj
 0001:00021157       ___addl                    10022157 f i LIBCMT:_strgtold_.obj
 0001:0002117b       ___shl_12                  1002217b f i LIBCMT:_strgtold_.obj
 0001:000211ae       ___shr_12                  100221ae f i LIBCMT:_strgtold_.obj
 0001:000211e0       ___ld12mul                 100221e0 f i LIBCMT:_strgtold_.obj
 0001:0002145b       ___multtenpow12            1002245b f i LIBCMT:_strgtold_.obj
 0001:0002175a       ___strgtold12_l            1002275a f   LIBCMT:_strgtold_.obj
 0001:00021e36       ___STRINGTOLD_L            10022e36 f   LIBCMT:_strgtold_.obj
 0001:00021e91       __MarkAllocaS              10022e91 f i LIBCMT:a_map.obj
 0001:00021ea7       __freea                    10022ea7 f i LIBCMT:a_map.obj
 0001:000220cc       ___crtLCMapStringA         100230cc f   LIBCMT:a_map.obj
 0001:00022112       __isleadbyte_l             10023112 f i LIBCMT:_wctype.obj
 0001:0002214a       _isleadbyte                1002314a f i LIBCMT:_wctype.obj
 0001:0002215d       __iswalpha_l               1002315d f i LIBCMT:_wctype.obj
 0001:00022173       _iswalpha                  10023173 f i LIBCMT:_wctype.obj
 0001:00022189       __iswupper_l               10023189 f i LIBCMT:_wctype.obj
 0001:0002219c       _iswupper                  1002319c f i LIBCMT:_wctype.obj
 0001:000221af       __iswlower_l               100231af f i LIBCMT:_wctype.obj
 0001:000221c2       _iswlower                  100231c2 f i LIBCMT:_wctype.obj
 0001:000221d5       __iswdigit_l               100231d5 f i LIBCMT:_wctype.obj
 0001:000221e8       _iswdigit                  100231e8 f i LIBCMT:_wctype.obj
 0001:000221fb       __iswxdigit_l              100231fb f i LIBCMT:_wctype.obj
 0001:00022211       _iswxdigit                 10023211 f i LIBCMT:_wctype.obj
 0001:00022227       __iswspace_l               10023227 f i LIBCMT:_wctype.obj
 0001:0002223a       _iswspace                  1002323a f i LIBCMT:_wctype.obj
 0001:0002224d       __iswpunct_l               1002324d f i LIBCMT:_wctype.obj
 0001:00022260       _iswpunct                  10023260 f i LIBCMT:_wctype.obj
 0001:00022273       __iswalnum_l               10023273 f i LIBCMT:_wctype.obj
 0001:00022289       _iswalnum                  10023289 f i LIBCMT:_wctype.obj
 0001:0002229f       __iswprint_l               1002329f f i LIBCMT:_wctype.obj
 0001:000222b5       _iswprint                  100232b5 f i LIBCMT:_wctype.obj
 0001:000222cb       __iswgraph_l               100232cb f i LIBCMT:_wctype.obj
 0001:000222e1       _iswgraph                  100232e1 f i LIBCMT:_wctype.obj
 0001:000222f7       __iswcntrl_l               100232f7 f i LIBCMT:_wctype.obj
 0001:0002230a       _iswcntrl                  1002330a f i LIBCMT:_wctype.obj
 0001:0002231d       _iswascii                  1002331d f i LIBCMT:_wctype.obj
 0001:00022331       __iswcsym_l                10023331 f i LIBCMT:_wctype.obj
 0001:00022357       ___iswcsym                 10023357 f i LIBCMT:_wctype.obj
 0001:0002237d       __iswcsymf_l               1002337d f i LIBCMT:_wctype.obj
 0001:000223a3       ___iswcsymf                100233a3 f i LIBCMT:_wctype.obj
 0001:000223c9       ____setlc_active_func      100233c9 f   LIBCMT:setlocal.obj
 0001:000223cf       ____unguarded_readlc_active_add_func 100233cf f   LIBCMT:setlocal.obj
 0001:000223fb       __configthreadlocale       100233fb f   LIBCMT:setlocal.obj
 0001:00022482       __free_locale              10023482 f   LIBCMT:setlocal.obj
 0001:00022544       ___free_locale             10023544 f   LIBCMT:setlocal.obj
 0001:0002254f       __get_current_locale       1002354f f   LIBCMT:setlocal.obj
 0001:000225fe       ___get_current_locale      100235fe f   LIBCMT:setlocal.obj
 0001:00022603       ___init_dummy              10023603 f   LIBCMT:setlocal.obj
 0001:00022606       __strcats                  10023606 f   LIBCMT:setlocal.obj
 0001:00022647       ___lc_strtolc              10023647 f   LIBCMT:setlocal.obj
 0001:00022766       ___lc_lctostr              10023766 f   LIBCMT:setlocal.obj
 0001:00022936       __expandlocale             10023936 f   LIBCMT:setlocal.obj
 0001:000230ad       __create_locale            100240ad f   LIBCMT:setlocal.obj
 0001:000231a2       ___create_locale           100241a2 f   LIBCMT:setlocal.obj
 0001:000231ad       _setlocale                 100241ad f   LIBCMT:setlocal.obj
 0001:00023321       __getdrive                 10024321 f   LIBCMT:drive.obj
 0001:000233ef       __chdrive                  100243ef f   LIBCMT:drive.obj
 0001:0002348b       __mtinitlocks              1002448b f   LIBCMT:mlock.obj
 0001:000234d5       __mtdeletelocks            100244d5 f   LIBCMT:mlock.obj
 0001:0002352c       __unlock                   1002452c f   LIBCMT:mlock.obj
 0001:00023543       __lockerr_exit             10024543 f   LIBCMT:mlock.obj
 0001:0002355b       __mtinitlocknum            1002455b f   LIBCMT:mlock.obj
 0001:0002361d       __lock                     1002461d f   LIBCMT:mlock.obj
 0001:0002370d       __woutput_l                1002470d f   LIBCMT:woutput.obj
 0001:000242d5       __validate_param_reuseW    100252d5 f   LIBCMT:woutputp.obj
 0001:000244dd       __woutput_p_l              100254dd f   LIBCMT:woutputp.obj
 0001:00025973       _wcstol                    10026973 f   LIBCMT:wcstol.obj
 0001:0002598d       __wcstol_l                 1002698d f   LIBCMT:wcstol.obj
 0001:000259a7       _wcstoul                   100269a7 f   LIBCMT:wcstol.obj
 0001:000259c1       __wcstoul_l                100269c1 f   LIBCMT:wcstol.obj
 0001:00025c82       __wcstoi64                 10026c82 f   LIBCMT:wcstoq.obj
 0001:00025cad       __wcstoi64_l               10026cad f   LIBCMT:wcstoq.obj
 0001:00025cca       __wcstoui64                10026cca f   LIBCMT:wcstoq.obj
 0001:00025cf6       __wcstoui64_l              10026cf6 f   LIBCMT:wcstoq.obj
 0001:00025fb0       __strtoi64                 10026fb0 f   LIBCMT:strtoq.obj
 0001:00025fdb       __strtoi64_l               10026fdb f   LIBCMT:strtoq.obj
 0001:00025ff9       __strtoui64                10026ff9 f   LIBCMT:strtoq.obj
 0001:00026025       __strtoui64_l              10027025 f   LIBCMT:strtoq.obj
 0001:00026050       _strlen                    10027050 f   LIBCMT:strlen.obj
 0001:00026132       __INTRN_LOCALE_CONV        10027132 f i LIBCMT:input.obj
 0001:000261b7       __input_l                  100271b7 f   LIBCMT:input.obj
 0001:00027285       __input_s_l                10028285 f   LIBCMT:inputs.obj
 0001:000283b0       ??0exception@std@@QAE@XZ   100293b0 f   LIBCMT:stdexcpt.obj
 0001:000283c1       ??0exception@std@@QAE@ABQBDH@Z 100293c1 f   LIBCMT:stdexcpt.obj
 0001:000283de       ?what@exception@std@@UBEPBDXZ 100293de f   LIBCMT:stdexcpt.obj
 0001:000283eb       ?_Copy_str@exception@std@@AAEXPBD@Z 100293eb f   LIBCMT:stdexcpt.obj
 0001:0002842b       ?_Tidy@exception@std@@AAEXXZ 1002942b f   LIBCMT:stdexcpt.obj
 0001:00028449       ??0exception@std@@QAE@ABQBD@Z 10029449 f   LIBCMT:stdexcpt.obj
 0001:00028470       ??4exception@std@@QAEAAV01@ABV01@@Z 10029470 f   LIBCMT:stdexcpt.obj
 0001:000284a5       ??1exception@std@@UAE@XZ   100294a5 f   LIBCMT:stdexcpt.obj
 0001:000284b0       ??0bad_cast@std@@QAE@PBD@Z 100294b0 f   LIBCMT:stdexcpt.obj
 0001:000284ce       ??1bad_cast@std@@UAE@XZ    100294ce f   LIBCMT:stdexcpt.obj
 0001:000284d9       ??0bad_typeid@std@@QAE@PBD@Z 100294d9 f   LIBCMT:stdexcpt.obj
 0001:000284f7       ??1bad_typeid@std@@UAE@XZ  100294f7 f   LIBCMT:stdexcpt.obj
 0001:00028502       ??0__non_rtti_object@std@@QAE@PBD@Z 10029502 f   LIBCMT:stdexcpt.obj
 0001:0002851f       ??1__non_rtti_object@std@@UAE@XZ 1002951f f   LIBCMT:stdexcpt.obj
 0001:0002852a       ??_Eexception@std@@UAEPAXI@Z 1002952a f i LIBCMT:stdexcpt.obj
 0001:0002852a       ??_Gexception@std@@UAEPAXI@Z 1002952a f i LIBCMT:stdexcpt.obj
 0001:00028551       ??0exception@std@@QAE@ABV01@@Z 10029551 f   LIBCMT:stdexcpt.obj
 0001:00028576       ??_Gbad_cast@std@@UAEPAXI@Z 10029576 f i LIBCMT:stdexcpt.obj
 0001:00028576       ??_Ebad_cast@std@@UAEPAXI@Z 10029576 f i LIBCMT:stdexcpt.obj
 0001:0002859d       ??0bad_cast@std@@QAE@ABV01@@Z 1002959d f   LIBCMT:stdexcpt.obj
 0001:000285ba       ??_Ebad_typeid@std@@UAEPAXI@Z 100295ba f i LIBCMT:stdexcpt.obj
 0001:000285ba       ??_Gbad_typeid@std@@UAEPAXI@Z 100295ba f i LIBCMT:stdexcpt.obj
 0001:000285e1       ??0bad_typeid@std@@QAE@ABV01@@Z 100295e1 f   LIBCMT:stdexcpt.obj
 0001:000285fe       ??_G__non_rtti_object@std@@UAEPAXI@Z 100295fe f i LIBCMT:stdexcpt.obj
 0001:000285fe       ??_E__non_rtti_object@std@@UAEPAXI@Z 100295fe f i LIBCMT:stdexcpt.obj
 0001:00028625       ??0__non_rtti_object@std@@QAE@ABV01@@Z 10029625 f   LIBCMT:stdexcpt.obj
 0001:00028642       __EH_prolog3               10029642 f   LIBCMT:ehprolg3.obj
 0001:00028675       __EH_prolog3_catch         10029675 f   LIBCMT:ehprolg3.obj
 0001:000286ab       __EH_prolog3_GS            100296ab f   LIBCMT:ehprolg3.obj
 0001:000286e1       __EH_prolog3_catch_GS      100296e1 f   LIBCMT:ehprolg3.obj
 0001:0002871a       __EH_epilog3               1002971a f   LIBCMT:ehprolg3.obj
 0001:0002872e       __EH_epilog3_GS            1002972e f   LIBCMT:ehprolg3.obj
 0001:0002873d       __EH_epilog3_catch_GS      1002973d f   LIBCMT:ehprolg3.obj
 0001:0002874c       __CxxThrowException@8      1002974c f   LIBCMT:throw.obj
 0001:00028798       ?_ValidateRead@@YAHPBXI@Z  10029798 f   LIBCMT:validate.obj
 0001:000287aa       ?_ValidateWrite@@YAHPAXI@Z 100297aa f   LIBCMT:validate.obj
 0001:000287bc       ?_ValidateExecute@@YAHP6GHXZ@Z 100297bc f   LIBCMT:validate.obj
 0001:000287d0       __global_unwind2           100297d0 f   LIBCMT:exsup.obj
 0001:00028835       __local_unwind2            10029835 f   LIBCMT:exsup.obj
 0001:000288b9       __abnormal_termination     100298b9 f   LIBCMT:exsup.obj
 0001:000288dc       __NLG_Notify1              100298dc f   LIBCMT:exsup.obj
 0001:000288e5       __NLG_Notify               100298e5 f   LIBCMT:exsup.obj
 0001:000288fc       __NLG_Dispatch             100298fc     LIBCMT:exsup.obj
 0001:000288fc       __NLG_Dispatch2            100298fc     LIBCMT:exsup.obj
 0001:00028904       __NLG_Call                 10029904 f   LIBCMT:exsup.obj
 0001:00028906       __NLG_Return2              10029906     LIBCMT:exsup.obj
 0001:00028907       __crt_debugger_hook        10029907 f   LIBCMT:dbghook.obj
 0001:0002890f       __lseeki64_nolock          1002990f f   LIBCMT:lseeki64.obj
 0001:00028994       __lseeki64                 10029994 f   LIBCMT:lseeki64.obj
 0001:00028a7e       __write_nolock             10029a7e f   LIBCMT:write.obj
 0001:0002917b       __write                    1002a17b f   LIBCMT:write.obj
 0001:0002924f       __getbuf                   1002a24f f   LIBCMT:_getbuf.obj
 0001:00029298       __isatty                   1002a298 f   LIBCMT:isatty.obj
 0001:000292ee       ___iob_func                1002a2ee f   LIBCMT:_file.obj
 0001:000292f4       ___initstdio               1002a2f4 f   LIBCMT:_file.obj
 0001:000293a5       ___endstdio                1002a3a5 f   LIBCMT:_file.obj
 0001:000293c5       __lock_file                1002a3c5 f   LIBCMT:_file.obj
 0001:00029406       __lock_file2               1002a406 f   LIBCMT:_file.obj
 0001:00029438       __unlock_file              1002a438 f   LIBCMT:_file.obj
 0001:00029474       __unlock_file2             1002a474 f   LIBCMT:_file.obj
 0001:000294a3       __fileno                   1002a4a3 f   LIBCMT:fileno.obj
 0001:000294c9       _printf                    1002a4c9 f   LIBCMT:printf.obj
 0001:00029570       __printf_l                 1002a570 f   LIBCMT:printf.obj
 0001:00029589       __printf_s_l               1002a589 f   LIBCMT:printf.obj
 0001:000295a2       _printf_s                  1002a5a2 f   LIBCMT:printf.obj
 0001:000295ba       __printf_p_l               1002a5ba f   LIBCMT:printf.obj
 0001:000295d3       __printf_p                 1002a5d3 f   LIBCMT:printf.obj
 0001:000295eb       __set_printf_count_output  1002a5eb f   LIBCMT:printf.obj
 0001:00029615       __get_printf_count_output  1002a615 f   LIBCMT:printf.obj
 0001:0002962b       __wctomb_s_l               1002a62b f   LIBCMT:wctomb.obj
 0001:00029780       _wctomb_s                  1002a780 f   LIBCMT:wctomb.obj
 0001:0002979d       __wctomb_l                 1002a79d f   LIBCMT:wctomb.obj
 0001:000297ee       _wctomb                    1002a7ee f   LIBCMT:wctomb.obj
 0001:00029820       __aulldvrm                 1002a820 f   LIBCMT:ulldvrm.obj
 0001:000298b5       __atodbl_l                 1002a8b5 f   LIBCMT:atodbl.obj
 0001:0002995d       __atodbl                   1002a95d f   LIBCMT:atodbl.obj
 0001:00029974       __atoldbl_l                1002a974 f   LIBCMT:atodbl.obj
 0001:00029a1d       __atoldbl                  1002aa1d f   LIBCMT:atodbl.obj
 0001:00029a34       __atoflt_l                 1002aa34 f   LIBCMT:atodbl.obj
 0001:00029adc       __atoflt                   1002aadc f   LIBCMT:atodbl.obj
 0001:00029af3       __set_output_format        1002aaf3 f   LIBCMT:outputformat.obj
 0001:00029b25       __get_output_format        1002ab25 f   LIBCMT:outputformat.obj
 0001:00029b2b       _strcpy_s                  1002ab2b f   LIBCMT:strcpy_s.obj
 0001:00029b8a       __fptostr                  1002ab8a f   LIBCMT:_fptostr.obj
 0001:00029c3d       ___dtold                   1002ac3d f   LIBCMT:_cfout_.obj
 0001:00029cf0       __fltout2                  1002acf0 f   LIBCMT:_cfout_.obj
 0001:00029d80       __alldvrm                  1002ad80 f   LIBCMT:lldvrm.obj
 0001:00029e60       __aullshr                  1002ae60 f   LIBCMT:ullshr.obj
 0001:00029e7f       __fptrap                   1002ae7f f   LIBCMT:crt0fp.obj
 0001:00029e88       __controlfp_s              1002ae88 f   LIBCMT:_contrlfp_.obj
 0001:00029ee7       ??0Block@_HeapManager@@QAE@XZ 1002aee7 f i LIBCMT:undname.obj
 0001:00029eed       ?Constructor@_HeapManager@@QAEXP6APAXI@ZP6AXPAX@Z@Z 1002aeed f i LIBCMT:undname.obj
 0001:00029f0c       ?Destructor@_HeapManager@@QAEXXZ 1002af0c f i LIBCMT:undname.obj
 0001:00029f34       ?getNumberOfDimensions@UnDecorator@@CAHXZ 1002af34 f   LIBCMT:undname.obj
 0001:00029f96       ?getTypeEncoding@UnDecorator@@CAHXZ 1002af96 f i LIBCMT:undname.obj
 0001:0002a47a       ?doUnderScore@UnDecorator@@SAHXZ 1002b47a f i LIBCMT:undname.obj
 0001:0002a485       ?doMSKeywords@UnDecorator@@SAHXZ 1002b485 f i LIBCMT:undname.obj
 0001:0002a492       ?doPtr64@UnDecorator@@SAHXZ 1002b492 f i LIBCMT:undname.obj
 0001:0002a4a0       ?doFunctionReturns@UnDecorator@@SAHXZ 1002b4a0 f i LIBCMT:undname.obj
 0001:0002a4ae       ?doAllocationModel@UnDecorator@@SAHXZ 1002b4ae f i LIBCMT:undname.obj
 0001:0002a4bc       ?doAllocationLanguage@UnDecorator@@SAHXZ 1002b4bc f i LIBCMT:undname.obj
 0001:0002a4ca       ?doThisTypes@UnDecorator@@SAHXZ 1002b4ca f i LIBCMT:undname.obj
 0001:0002a4dc       ?doAccessSpecifiers@UnDecorator@@SAHXZ 1002b4dc f i LIBCMT:undname.obj
 0001:0002a4ea       ?doThrowTypes@UnDecorator@@SAHXZ 1002b4ea f i LIBCMT:undname.obj
 0001:0002a4f8       ?doMemberTypes@UnDecorator@@SAHXZ 1002b4f8 f i LIBCMT:undname.obj
 0001:0002a506       ?doNameOnly@UnDecorator@@SAHXZ 1002b506 f i LIBCMT:undname.obj
 0001:0002a511       ?doTypeOnly@UnDecorator@@SAHXZ 1002b511 f i LIBCMT:undname.obj
 0001:0002a51c       ?haveTemplateParameters@UnDecorator@@SAHXZ 1002b51c f i LIBCMT:undname.obj
 0001:0002a527       ?doEcsu@UnDecorator@@SAHXZ 1002b527 f i LIBCMT:undname.obj
 0001:0002a535       ?doNoIdentCharCheck@UnDecorator@@SAHXZ 1002b535 f i LIBCMT:undname.obj
 0001:0002a540       ?doEllipsis@UnDecorator@@SAHXZ 1002b540 f i LIBCMT:undname.obj
 0001:0002a54e       ?UScore@UnDecorator@@SAPBDW4Tokens@@@Z 1002b54e f   LIBCMT:undname.obj
 0001:0002a56d       ?getMemory@_HeapManager@@QAEPAXIH@Z 1002b56d f   LIBCMT:undname.obj
 0001:0002a5f5       ??0DName@@QAE@XZ           1002b5f5 f i LIBCMT:undname.obj
 0001:0002a606       ??0DName@@QAE@ABV0@@Z      1002b606 f i LIBCMT:undname.obj
 0001:0002a61e       ?isValid@DName@@QBEHXZ     1002b61e f i LIBCMT:undname.obj
 0001:0002a628       ?isEmpty@DName@@QBEHXZ     1002b628 f i LIBCMT:undname.obj
 0001:0002a630       ?status@DName@@QBE?AW4DNameStatus@@XZ 1002b630 f i LIBCMT:undname.obj
 0001:0002a635       ?setPtrRef@DName@@QAEAAV1@XZ 1002b635 f i LIBCMT:undname.obj
 0001:0002a63f       ?isPtrRef@DName@@QBEHXZ    1002b63f f i LIBCMT:undname.obj
 0001:0002a649       ?isUDC@DName@@QBEHXZ       1002b649 f i LIBCMT:undname.obj
 0001:0002a65a       ?setIsUDC@DName@@QAEXXZ    1002b65a f i LIBCMT:undname.obj
 0001:0002a667       ?isUDTThunk@DName@@QBEHXZ  1002b667 f i LIBCMT:undname.obj
 0001:0002a678       ?setIsArray@DName@@QAEXXZ  1002b678 f i LIBCMT:undname.obj
 0001:0002a680       ?isArray@DName@@QBEHXZ     1002b680 f i LIBCMT:undname.obj
 0001:0002a68a       ?isNoTE@DName@@QBEHXZ      1002b68a f i LIBCMT:undname.obj
 0001:0002a694       ?setIsNoTE@DName@@QAEXXZ   1002b694 f i LIBCMT:undname.obj
 0001:0002a69c       ?isPinPtr@DName@@QBEHXZ    1002b69c f i LIBCMT:undname.obj
 0001:0002a6a6       ?setIsPinPtr@DName@@QAEXXZ 1002b6a6 f i LIBCMT:undname.obj
 0001:0002a6ae       ?isComArray@DName@@QBEHXZ  1002b6ae f i LIBCMT:undname.obj
 0001:0002a6b8       ?setIsComArray@DName@@QAEXXZ 1002b6b8 f i LIBCMT:undname.obj
 0001:0002a6c0       ?isVCallThunk@DName@@QBEHXZ 1002b6c0 f i LIBCMT:undname.obj
 0001:0002a6ca       ?setIsVCallThunk@DName@@QAEXXZ 1002b6ca f i LIBCMT:undname.obj
 0001:0002a6d2       ?length@DName@@QBEHXZ      1002b6d2 f i LIBCMT:undname.obj
 0001:0002a6df       ?getLastChar@DName@@QBEDXZ 1002b6df f i LIBCMT:undname.obj
 0001:0002a6ed       ?getString@DName@@QBEPADPAD0@Z 1002b6ed f i LIBCMT:undname.obj
 0001:0002a705       ??_5DName@@QAEAAV0@ABV0@@Z 1002b705 f   LIBCMT:undname.obj
 0001:0002a724       ??4DName@@QAEAAV0@ABV0@@Z  1002b724 f   LIBCMT:undname.obj
 0001:0002a73c       ?isFull@Replicator@@QBEHXZ 1002b73c f i LIBCMT:undname.obj
 0001:0002a745       ??0Replicator@@QAE@XZ      1002b745 f i LIBCMT:undname.obj
 0001:0002a74b       ??0DNameNode@@IAE@XZ       1002b74b f   LIBCMT:undname.obj
 0001:0002a754       ??0charNode@@QAE@D@Z       1002b754 f   LIBCMT:undname.obj
 0001:0002a76b       ?length@charNode@@UBEHXZ   1002b76b f i LIBCMT:undname.obj
 0001:0002a76f       ?getLastChar@charNode@@UBEDXZ 1002b76f f i LIBCMT:undname.obj
 0001:0002a773       ?getString@charNode@@UBEPADPAD0@Z 1002b773 f i LIBCMT:undname.obj
 0001:0002a78a       ??0pDNameNode@@QAE@PAVDName@@@Z 1002b78a f   LIBCMT:undname.obj
 0001:0002a7b4       ?length@pDNameNode@@UBEHXZ 1002b7b4 f i LIBCMT:undname.obj
 0001:0002a7ca       ?getLastChar@pDNameNode@@UBEDXZ 1002b7ca f i LIBCMT:undname.obj
 0001:0002a7e1       ?getString@pDNameNode@@UBEPADPAD0@Z 1002b7e1 f i LIBCMT:undname.obj
 0001:0002a802       ??0DNameStatusNode@@AAE@W4DNameStatus@@@Z 1002b802 f   LIBCMT:undname.obj
 0001:0002a827       ?length@DNameStatusNode@@UBEHXZ 1002b827 f i LIBCMT:undname.obj
 0001:0002a82b       ?getLastChar@DNameStatusNode@@UBEDXZ 1002b82b f i LIBCMT:undname.obj
 0001:0002a837       ?make@DNameStatusNode@@SAPAV1@W4DNameStatus@@@Z 1002b837 f i LIBCMT:undname.obj
 0001:0002a8bd       ??0pairNode@@QAE@PAVDNameNode@@0@Z 1002b8bd f   LIBCMT:undname.obj
 0001:0002a8de       ?length@pairNode@@UBEHXZ   1002b8de f i LIBCMT:undname.obj
 0001:0002a909       ?getLastChar@pairNode@@UBEDXZ 1002b909 f i LIBCMT:undname.obj
 0001:0002a925       ?getString@pairNode@@UBEPADPAD0@Z 1002b925 f i LIBCMT:undname.obj
 0001:0002a99f       ??0UnDecorator@@QAE@PADPBDHP6APADJ@ZK@Z 1002b99f f i LIBCMT:undname.obj
 0001:0002aa0e       ?getDataIndirectType@UnDecorator@@CA?AVDName@@XZ 1002ba0e f i LIBCMT:undname.obj
 0001:0002aa47       ?getThisType@UnDecorator@@CA?AVDName@@XZ 1002ba47 f i LIBCMT:undname.obj
 0001:0002aa81       ??2@YAPAXIAAV_HeapManager@@H@Z 1002ba81 f i LIBCMT:undname.obj
 0001:0002aa98       ?getStringHelper@@YAPADPAD00H@Z 1002ba98 f i LIBCMT:undname.obj
 0001:0002aacf       ??0DName@@QAE@PAV0@@Z      1002bacf f   LIBCMT:undname.obj
 0001:0002ab22       ??0DName@@QAE@W4DNameStatus@@@Z 1002bb22 f   LIBCMT:undname.obj
 0001:0002ab67       ?getString@DName@@QBEPADPADH@Z 1002bb67 f i LIBCMT:undname.obj
 0001:0002abc6       ?append@DName@@AAEXPAVDNameNode@@@Z 1002bbc6 f   LIBCMT:undname.obj
 0001:0002ac0e       ??4DName@@QAEAAV0@PAV0@@Z  1002bc0e f   LIBCMT:undname.obj
 0001:0002ac5b       ??4DName@@QAEAAV0@W4DNameStatus@@@Z 1002bc5b f   LIBCMT:undname.obj
 0001:0002ac92       ??YReplicator@@QAEAAV0@ABVDName@@@Z 1002bc92 f   LIBCMT:undname.obj
 0001:0002acdc       ??AReplicator@@QBE?AVDName@@H@Z 1002bcdc f   LIBCMT:undname.obj
 0001:0002ad2b       ??0pcharNode@@QAE@PBDH@Z   1002bd2b f   LIBCMT:undname.obj
 0001:0002ad82       ?length@pcharNode@@UBEHXZ  1002bd82 f i LIBCMT:undname.obj
 0001:0002ad86       ?getLastChar@pcharNode@@UBEDXZ 1002bd86 f i LIBCMT:undname.obj
 0001:0002ad98       ?getString@pcharNode@@UBEPADPAD0@Z 1002bd98 f i LIBCMT:undname.obj
 0001:0002adb5       ?getString@DNameStatusNode@@UBEPADPAD0@Z 1002bdb5 f i LIBCMT:undname.obj
 0001:0002adde       ?getReturnType@UnDecorator@@CA?AVDName@@PAV2@@Z 1002bdde f   LIBCMT:undname.obj
 0001:0002ae0f       ?getStorageConvention@UnDecorator@@CA?AVDName@@XZ 1002be0f f i LIBCMT:undname.obj
 0001:0002ae22       ??YDName@@QAEAAV0@W4DNameStatus@@@Z 1002be22 f   LIBCMT:undname.obj
 0001:0002ae64       ?doPchar@DName@@AAEXPBDH@Z 1002be64 f   LIBCMT:undname.obj
 0001:0002aee7       ??0DName@@QAE@D@Z          1002bee7 f   LIBCMT:undname.obj
 0001:0002af14       ??0DName@@QAE@PBD@Z        1002bf14 f   LIBCMT:undname.obj
 0001:0002af51       ??0DName@@QAE@AAPBDD@Z     1002bf51 f   LIBCMT:undname.obj
 0001:0002b010       ??0DName@@QAE@_K@Z         1002c010 f   LIBCMT:undname.obj
 0001:0002b07e       ??0DName@@QAE@_J@Z         1002c07e f   LIBCMT:undname.obj
 0001:0002b119       ??HDName@@QBE?AV0@W4DNameStatus@@@Z 1002c119 f   LIBCMT:undname.obj
 0001:0002b13d       ??YDName@@QAEAAV0@ABV0@@Z  1002c13d f   LIBCMT:undname.obj
 0001:0002b180       ??YDName@@QAEAAV0@PAV0@@Z  1002c180 f   LIBCMT:undname.obj
 0001:0002b1e7       ??4DName@@QAEAAV0@D@Z      1002c1e7 f i LIBCMT:undname.obj
 0001:0002b214       ??4DName@@QAEAAV0@PBD@Z    1002c214 f   LIBCMT:undname.obj
 0001:0002b249       ?getCallingConvention@UnDecorator@@CA?AVDName@@XZ 1002c249 f   LIBCMT:undname.obj
 0001:0002b311       ?getVCallThunkType@UnDecorator@@CA?AVDName@@XZ 1002c311 f i LIBCMT:undname.obj
 0001:0002b35c       ??HDName@@QBE?AV0@ABV0@@Z  1002c35c f   LIBCMT:undname.obj
 0001:0002b380       ??HDName@@QBE?AV0@PAV0@@Z  1002c380 f   LIBCMT:undname.obj
 0001:0002b3a4       ??YDName@@QAEAAV0@D@Z      1002c3a4 f   LIBCMT:undname.obj
 0001:0002b3f6       ??YDName@@QAEAAV0@PBD@Z    1002c3f6 f   LIBCMT:undname.obj
 0001:0002b45a       ?getArgumentList@UnDecorator@@CA?AVDName@@XZ 1002c45a f   LIBCMT:undname.obj
 0001:0002b560       ?getVdispMapType@UnDecorator@@CA?AVDName@@ABV2@@Z 1002c560 f i LIBCMT:undname.obj
 0001:0002b5b4       ??H@YA?AVDName@@DABV0@@Z   1002c5b4 f i LIBCMT:undname.obj
 0001:0002b5d8       ??H@YA?AVDName@@W4DNameStatus@@ABV0@@Z 1002c5d8 f i LIBCMT:undname.obj
 0001:0002b5fc       ??H@YA?AVDName@@PBDABV0@@Z 1002c5fc f i LIBCMT:undname.obj
 0001:0002b620       ??HDName@@QBE?AV0@D@Z      1002c620 f   LIBCMT:undname.obj
 0001:0002b644       ??HDName@@QBE?AV0@PBD@Z    1002c644 f   LIBCMT:undname.obj
 0001:0002b668       ?getDimension@UnDecorator@@CA?AVDName@@_N@Z 1002c668 f   LIBCMT:undname.obj
 0001:0002b7ae       ?getEnumType@UnDecorator@@CA?AVDName@@XZ 1002c7ae f i LIBCMT:undname.obj
 0001:0002b89a       ?getArgumentTypes@UnDecorator@@CA?AVDName@@XZ 1002c89a f   LIBCMT:undname.obj
 0001:0002b97a       ?getThrowTypes@UnDecorator@@CA?AVDName@@XZ 1002c97a f   LIBCMT:undname.obj
 0001:0002ba04       ?getExtendedDataIndirectType@UnDecorator@@CA?AVDName@@AAPBDAA_NH@Z 1002ca04 f   LIBCMT:undname.obj
 0001:0002bbcc       ?getArrayType@UnDecorator@@CA?AVDName@@ABV2@@Z 1002cbcc f i LIBCMT:undname.obj
 0001:0002bdc2       ?getLexicalFrame@UnDecorator@@CA?AVDName@@XZ 1002cdc2 f i LIBCMT:undname.obj
 0001:0002bdff       ?getDisplacement@UnDecorator@@CA?AVDName@@XZ 1002cdff f i LIBCMT:undname.obj
 0001:0002be15       ?getCallIndex@UnDecorator@@CA?AVDName@@XZ 1002ce15 f i LIBCMT:undname.obj
 0001:0002be2b       ?getGuardNumber@UnDecorator@@CA?AVDName@@XZ 1002ce2b f i LIBCMT:undname.obj
 0001:0002be41       ?getVfTableType@UnDecorator@@CA?AVDName@@ABV2@@Z 1002ce41 f i LIBCMT:undname.obj
 0001:0002bfa0       ?getStringEncoding@UnDecorator@@CA?AVDName@@PADH@Z 1002cfa0 f   LIBCMT:undname.obj
 0001:0002c053       ?getSignedDimension@UnDecorator@@CA?AVDName@@XZ 1002d053 f   LIBCMT:undname.obj
 0001:0002c0a5       ?getTemplateConstant@UnDecorator@@CA?AVDName@@XZ 1002d0a5 f   LIBCMT:undname.obj
 0001:0002c395       ?getPtrRefDataType@UnDecorator@@CA?AVDName@@ABV2@H@Z 1002d395 f i LIBCMT:undname.obj
 0001:0002c47c       ?getVbTableType@UnDecorator@@CA?AVDName@@ABV2@@Z 1002d47c f i LIBCMT:undname.obj
 0001:0002c493       ?getTemplateArgumentList@UnDecorator@@CA?AVDName@@XZ 1002d493 f   LIBCMT:undname.obj
 0001:0002c6a2       ?getOperatorName@UnDecorator@@CA?AVDName@@_NPA_N@Z 1002d6a2 f i LIBCMT:undname.obj
 0001:0002cc78       ?getTemplateName@UnDecorator@@CA?AVDName@@_N@Z 1002dc78 f   LIBCMT:undname.obj
 0001:0002cdcf       ?getZName@UnDecorator@@CA?AVDName@@_N0@Z 1002ddcf f   LIBCMT:undname.obj
 0001:0002cfe5       ?getScopedName@UnDecorator@@CA?AVDName@@XZ 1002dfe5 f   LIBCMT:undname.obj
 0001:0002d0c6       ?getECSUName@UnDecorator@@CA?AVDName@@XZ 1002e0c6 f i LIBCMT:undname.obj
 0001:0002d0d9       ?getECSUDataType@UnDecorator@@CA?AVDName@@XZ 1002e0d9 f   LIBCMT:undname.obj
 0001:0002d1e9       ?getSymbolName@UnDecorator@@CA?AVDName@@XZ 1002e1e9 f i LIBCMT:undname.obj
 0001:0002d233       ?getBasedType@UnDecorator@@CA?AVDName@@XZ 1002e233 f   LIBCMT:undname.obj
 0001:0002d2cf       ?composeDeclaration@UnDecorator@@CA?AVDName@@ABV2@@Z 1002e2cf f i LIBCMT:undname.obj
 0001:0002df89       ?getDecoratedName@UnDecorator@@CA?AVDName@@XZ 1002ef89 f   LIBCMT:undname.obj
 0001:0002e1f7       ?getScope@UnDecorator@@CA?AVDName@@XZ 1002f1f7 f   LIBCMT:undname.obj
 0001:0002e4ae       ?getFunctionIndirectType@UnDecorator@@CA?AVDName@@ABV2@@Z 1002f4ae f   LIBCMT:undname.obj
 0001:0002e88d       ?getDataIndirectType@UnDecorator@@CA?AVDName@@ABV2@PBD0H@Z 1002f88d f   LIBCMT:undname.obj
 0001:0002ee2c       ??BUnDecorator@@QAEPADXZ   1002fe2c f i LIBCMT:undname.obj
 0001:0002ef6b       ?getPtrRefType@UnDecorator@@CA?AVDName@@ABV2@0PBD@Z 1002ff6b f   LIBCMT:undname.obj
 0001:0002f064       ?getPointerType@UnDecorator@@CA?AVDName@@ABV2@0@Z 10030064 f i LIBCMT:undname.obj
 0001:0002f084       ?getPointerTypeArray@UnDecorator@@CA?AVDName@@ABV2@0@Z 10030084 f i LIBCMT:undname.obj
 0001:0002f0a4       ?getReferenceType@UnDecorator@@CA?AVDName@@ABV2@0PBD@Z 100300a4 f i LIBCMT:undname.obj
 0001:0002f0c2       ___unDName                 100300c2 f   LIBCMT:undname.obj
 0001:0002f15c       ___unDNameEx               1003015c f   LIBCMT:undname.obj
 0001:0002f1f6       ?getBasicDataType@UnDecorator@@CA?AVDName@@ABV2@@Z 100301f6 f   LIBCMT:undname.obj
 0001:0002f5b9       ?getPrimaryDataType@UnDecorator@@CA?AVDName@@ABV2@@Z 100305b9 f   LIBCMT:undname.obj
 0001:0002f76a       ?getDataType@UnDecorator@@CA?AVDName@@PAV2@@Z 1003076a f   LIBCMT:undname.obj
 0001:0002f839       ?getExternalDataType@UnDecorator@@CA?AVDName@@ABV2@@Z 10030839 f i LIBCMT:undname.obj
 0001:0002f8c0       __local_unwind4            100308c0 f   LIBCMT:exsup4.obj
 0001:0002f996       __seh_longjmp_unwind4@4    10030996 f   LIBCMT:exsup4.obj
 0001:0002f9b2       @_EH4_CallFilterFunc@8     100309b2 f   LIBCMT:exsup4.obj
 0001:0002f9c9       @_EH4_TransferToHandler@8  100309c9 f   LIBCMT:exsup4.obj
 0001:0002f9e2       @_EH4_GlobalUnwind2@8      100309e2 f   LIBCMT:exsup4.obj
 0001:0002f9fb       @_EH4_LocalUnwind@16       100309fb f   LIBCMT:exsup4.obj
 0001:0002fa12       __initp_misc_winsig        10030a12 f   LIBCMT:winsig.obj
 0001:0002fb03       ___get_sigabrt             10030b03 f   LIBCMT:winsig.obj
 0001:0002fb10       ___fpecode                 10030b10 f   LIBCMT:winsig.obj
 0001:0002fb19       ___pxcptinfoptrs           10030b19 f   LIBCMT:winsig.obj
 0001:0002fb22       _signal                    10030b22 f   LIBCMT:winsig.obj
 0001:0002fd62       _raise                     10030d62 f   LIBCMT:winsig.obj
 0001:0002ff05       ___crtMessageBoxW          10030f05 f   LIBCMT:crtmboxw.obj
 0001:00030071       _wcscat_s                  10031071 f   LIBCMT:wcscat_s.obj
 0001:000300e6       _wcsncpy_s                 100310e6 f   LIBCMT:wcsncpy_s.obj
 0001:000301b3       _wcslen                    100311b3 f   LIBCMT:wcslen.obj
 0001:000301ce       _wcscpy_s                  100311ce f   LIBCMT:wcscpy_s.obj
 0001:00030231       __set_error_mode           10031231 f   LIBCMT:errmode.obj
 0001:00030270       ___set_app_type            10031270 f   LIBCMT:errmode.obj
 0001:0003027f       _strncpy_s                 1003127f f   LIBCMT:strncpy_s.obj
 0001:0003040e       ___crtGetLocaleInfoA       1003140e f   LIBCMT:a_loc.obj
 0001:00030448       __initp_misc_rand_s        10031448 f   LIBCMT:rand_s.obj
 0001:00030457       _rand_s                    10031457 f   LIBCMT:rand_s.obj
 0001:00030547       __initp_heap_handler       10031547 f   LIBCMT:handler.obj
 0001:00030556       ?_set_new_handler@@YAP6AHI@ZP6AHI@Z@Z 10031556 f   LIBCMT:handler.obj
 0001:0003058d       ?_set_new_handler@@YAP6AHI@ZH@Z 1003158d f   LIBCMT:handler.obj
 0001:00030596       ?_query_new_handler@@YAP6AHI@ZXZ 10031596 f   LIBCMT:handler.obj
 0001:000305a3       __callnewh                 100315a3 f   LIBCMT:handler.obj
 0001:000305d0       __ValidateImageBase        100315d0 f   LIBCMT:pesect.obj
 0001:00030610       __FindPESection            10031610 f   LIBCMT:pesect.obj
 0001:00030660       __IsNonwritableInCurrentImage 10031660 f   LIBCMT:pesect.obj
 0001:0003076f       __ismbbkalnum_l            1003176f f   LIBCMT:ismbbyte.obj
 0001:00030788       __ismbbkalnum              10031788 f   LIBCMT:ismbbyte.obj
 0001:000307a0       __ismbbkprint_l            100317a0 f   LIBCMT:ismbbyte.obj
 0001:000307b9       __ismbbkprint              100317b9 f   LIBCMT:ismbbyte.obj
 0001:000307d1       __ismbbkpunct_l            100317d1 f   LIBCMT:ismbbyte.obj
 0001:000307ea       __ismbbkpunct              100317ea f   LIBCMT:ismbbyte.obj
 0001:00030802       __ismbbalnum_l             10031802 f   LIBCMT:ismbbyte.obj
 0001:0003081e       __ismbbalnum               1003181e f   LIBCMT:ismbbyte.obj
 0001:00030839       __ismbbalpha_l             10031839 f   LIBCMT:ismbbyte.obj
 0001:00030855       __ismbbalpha               10031855 f   LIBCMT:ismbbyte.obj
 0001:00030870       __ismbbgraph_l             10031870 f   LIBCMT:ismbbyte.obj
 0001:0003088c       __ismbbgraph               1003188c f   LIBCMT:ismbbyte.obj
 0001:000308a7       __ismbbprint_l             100318a7 f   LIBCMT:ismbbyte.obj
 0001:000308c3       __ismbbprint               100318c3 f   LIBCMT:ismbbyte.obj
 0001:000308de       __ismbbpunct_l             100318de f   LIBCMT:ismbbyte.obj
 0001:000308f7       __ismbbpunct               100318f7 f   LIBCMT:ismbbyte.obj
 0001:0003090f       __ismbblead_l              1003190f f   LIBCMT:ismbbyte.obj
 0001:00030928       __ismbblead                10031928 f   LIBCMT:ismbbyte.obj
 0001:00030940       __ismbbtrail_l             10031940 f   LIBCMT:ismbbyte.obj
 0001:00030959       __ismbbtrail               10031959 f   LIBCMT:ismbbyte.obj
 0001:00030971       __ismbbkana_l              10031971 f   LIBCMT:ismbbyte.obj
 0001:000309c6       __ismbbkana                100319c6 f   LIBCMT:ismbbyte.obj
 0001:000309d9       __87except                 100319d9 f   LIBCMT:_87except_.obj
 0001:00030b18       __frnd                     10031b18 f   LIBCMT:_frnd_.obj
 0001:00030b2c       __copysign                 10031b2c f   LIBCMT:_ieeemisc_.obj
 0001:00030b54       __chgsign                  10031b54 f   LIBCMT:_ieeemisc_.obj
 0001:00030b81       __scalb                    10031b81 f   LIBCMT:_ieeemisc_.obj
 0001:00030b9b       __logb                     10031b9b f   LIBCMT:_ieeemisc_.obj
 0001:00030c84       __nextafter                10031c84 f   LIBCMT:_ieeemisc_.obj
 0001:00030f36       __finite                   10031f36 f   LIBCMT:_ieeemisc_.obj
 0001:00030f52       __isnan                    10031f52 f   LIBCMT:_ieeemisc_.obj
 0001:00030f8a       __fpclass                  10031f8a f   LIBCMT:_ieeemisc_.obj
 0001:00031027       __set_exp                  10032027 f   LIBCMT:_util_.obj
 0001:00031054       __get_exp                  10032054 f   LIBCMT:_util_.obj
 0001:0003106d       __add_exp                  1003206d f   LIBCMT:_util_.obj
 0001:0003109b       __set_bexp                 1003209b f   LIBCMT:_util_.obj
 0001:000310c3       __sptype                   100320c3 f   LIBCMT:_util_.obj
 0001:00031129       __decomp                   10032129 f   LIBCMT:_util_.obj
 0001:000311ec       __matherr                  100321ec f   LIBCMT:_matherr_.obj
 0001:000311ef       __raise_exc_ex             100321ef f   LIBCMT:_fpexcept_.obj
 0001:000314cb       __raise_exc                100324cb f   LIBCMT:_fpexcept_.obj
 0001:000314ee       __raise_excf               100324ee f   LIBCMT:_fpexcept_.obj
 0001:00031511       __handle_exc               10032511 f   LIBCMT:_fpexcept_.obj
 0001:000316f5       __set_errno_from_matherr   100326f5 f   LIBCMT:_fpexcept_.obj
 0001:00031748       __errcode                  10032748 f   LIBCMT:_fpexcept_.obj
 0001:0003177c       __umatherr                 1003277c f   LIBCMT:_fpexcept_.obj
 0001:0003181c       __handle_qnan1             1003281c f   LIBCMT:_fpexcept_.obj
 0001:00031871       __handle_qnan2             10032871 f   LIBCMT:_fpexcept_.obj
 0001:000318d2       __except1                  100328d2 f   LIBCMT:_fpexcept_.obj
 0001:0003199c       __except2                  1003299c f   LIBCMT:_fpexcept_.obj
 0001:00031a76       __statfp                   10032a76 f   LIBCMT:_fpctrl_.obj
 0001:00031a86       __clrfp                    10032a86 f   LIBCMT:_fpctrl_.obj
 0001:00031a97       __ctrlfp                   10032a97 f   LIBCMT:_fpctrl_.obj
 0001:00031ac2       __set_statfp               10032ac2 f   LIBCMT:_fpctrl_.obj
 0001:00031b1a       ___get_fpsr_sse2           10032b1a f   LIBCMT:_fpctrl_.obj
 0001:00031b38       ___set_fpsr_sse2           10032b38 f   LIBCMT:_fpctrl_.obj
 0001:00031baa       ___fclrf_sse2              10032baa f   LIBCMT:_fpctrl_.obj
 0001:00031bc7       ___statfp_sse2             10032bc7 f   LIBCMT:_fpctrl_.obj
 0001:00031bda       ___clrfp_sse2              10032bda f   LIBCMT:_fpctrl_.obj
 0001:00031bf2       ___ctrlfp_sse2             10032bf2 f   LIBCMT:_fpctrl_.obj
 0001:00031c29       ___set_statfp_sse2         10032c29 f   LIBCMT:_fpctrl_.obj
 0001:00031d2b       ___crtGetStringTypeA       10032d2b f   LIBCMT:a_str.obj
 0001:0003256a       ___free_lc_time            1003356a f   LIBCMT:inittime.obj
 0001:000328e1       ___init_time               100338e1 f   LIBCMT:inittime.obj
 0001:0003298e       ___free_lconv_num          1003398e f   LIBCMT:initnum.obj
 0001:000329f7       ___init_numeric            100339f7 f   LIBCMT:initnum.obj
 0001:00032c17       ___free_lconv_mon          10033c17 f   LIBCMT:initmon.obj
 0001:00032d15       ___init_monetary           10033d15 f   LIBCMT:initmon.obj
 0001:00033075       _localeconv                10034075 f   LIBCMT:lconv.obj
 0001:0003309b       ___pwctype_func            1003409b f   LIBCMT:ctype.obj
 0001:000330a1       ___pctype_func             100340a1 f   LIBCMT:ctype.obj
 0001:000330ca       __ZeroTail                 100340ca f i LIBCMT:_intrncvt_.obj
 0001:00033113       __IncMan                   10034113 f i LIBCMT:_intrncvt_.obj
 0001:00033180       __RoundMan                 10034180 f i LIBCMT:_intrncvt_.obj
 0001:0003326c       __CopyMan                  1003426c f i LIBCMT:_intrncvt_.obj
 0001:0003328b       __FillZeroMan              1003428b f i LIBCMT:_intrncvt_.obj
 0001:0003329c       __IsZeroMan                1003429c f i LIBCMT:_intrncvt_.obj
 0001:000332bb       __ShrMan                   100342bb f i LIBCMT:_intrncvt_.obj
 0001:00033353       __ld12cvt                  10034353 f i LIBCMT:_intrncvt_.obj
 0001:000338a2       __ld12tod                  100348a2 f   LIBCMT:_intrncvt_.obj
 0001:00033df3       __ld12tof                  10034df3 f   LIBCMT:_intrncvt_.obj
 0001:00034344       __ld12told                 10035344 f   LIBCMT:_intrncvt_.obj
 0001:00034421       ___add_12                  10035421 f i LIBCMT:_mantold_.obj
 0001:00034492       ___mtold12                 10035492 f   LIBCMT:_mantold_.obj
 0001:00034676       _iswctype                  10035676 f   LIBCMT:iswctype.obj
 0001:000346cb       _is_wctype                 100356cb f   LIBCMT:iswctype.obj
 0001:000346d6       __iswctype_l               100356d6 f   LIBCMT:iswctype.obj
 0001:000346ea       ___init_ctype              100356ea f   LIBCMT:initctyp.obj
 0001:00034a91       ____mb_cur_max_func        10035a91 f   LIBCMT:initctyp.obj
 0001:00034aba       ____mb_cur_max_l_func      10035aba f   LIBCMT:initctyp.obj
 0001:00034ad6       ____lc_codepage_func       10035ad6 f   LIBCMT:initctyp.obj
 0001:00034afc       ____lc_collate_cp_func     10035afc f   LIBCMT:initctyp.obj
 0001:00034b22       ____lc_handle_func         10035b22 f   LIBCMT:initctyp.obj
 0001:00034b48       ___init_collate            10035b48 f   LIBCMT:initcoll.obj
 0001:00034b4b       _strcat_s                  10035b4b f   LIBCMT:strcat_s.obj
 0001:00034bc0       _strcspn                   10035bc0 f   LIBCMT:strcspn.obj
 0001:000351d3       ___get_qualified_locale    100361d3 f   LIBCMT:getqloc.obj
 0001:000368de       _memcmp                    100378de f   LIBCMT:memcmp.obj
 0001:00037e32       _strncmp                   10038e32 f   LIBCMT:strncmp.obj
 0001:00037f00       _strpbrk                   10038f00 f   LIBCMT:strpbrk.obj
 0001:00037f40       __SEH_prolog4_GS           10038f40 f   LIBCMT:sehprolg4gs.obj
 0001:00037f88       __SEH_epilog4_GS           10038f88 f   LIBCMT:sehprolg4gs.obj
 0001:00037f97       __fputwc_nolock            10038f97 f   LIBCMT:fputwc.obj
 0001:0003811e       _fputwc                    1003911e f   LIBCMT:fputwc.obj
 0001:0003818e       _putwc                     1003918e f   LIBCMT:fputwc.obj
 0001:00038199       __mbtowc_l                 10039199 f   LIBCMT:mbtowc.obj
 0001:000382af       _mbtowc                    100392af f   LIBCMT:mbtowc.obj
 0001:000382c9       __validate_param_reuseA    100392c9 f   LIBCMT:outputp.obj
 0001:000384af       _get_crtdouble_arg         100394af f i LIBCMT:outputp.obj
 0001:000384c4       __output_p_l               100394c4 f   LIBCMT:outputp.obj
 0001:000398a3       __output_s_l               1003a8a3 f   LIBCMT:outputs.obj
 0001:0003a4d7       __wchartodigit             1003b4d7 f   LIBCMT:wchtodig.obj
 0001:0003a677       __filbuf                   1003b677 f   LIBCMT:_filbuf.obj
 0001:0003a799       __ungetc_nolock            1003b799 f   LIBCMT:ungetc.obj
 0001:0003a87c       _ungetc                    1003b87c f   LIBCMT:ungetc.obj
 0001:0003a8e5       __set_osfhnd               1003b8e5 f   LIBCMT:osfinfo.obj
 0001:0003a966       __free_osfhnd              1003b966 f   LIBCMT:osfinfo.obj
 0001:0003a9ec       __get_osfhandle            1003b9ec f   LIBCMT:osfinfo.obj
 0001:0003aa55       ___lock_fhandle            1003ba55 f   LIBCMT:osfinfo.obj
 0001:0003aaf4       __unlock_fhandle           1003baf4 f   LIBCMT:osfinfo.obj
 0001:0003ab1b       __alloc_osfhnd             1003bb1b f   LIBCMT:osfinfo.obj
 0001:0003acb4       __open_osfhandle           1003bcb4 f   LIBCMT:osfinfo.obj
 0001:0003adca       __putwch_nolock            1003bdca f   LIBCMT:putwch.obj
 0001:0003ae0c       __putwch                   1003be0c f   LIBCMT:putwch.obj
 0001:0003ae52       __fcloseall                1003be52 f   LIBCMT:closeall.obj
 0001:0003aeee       __flush                    1003beee f   LIBCMT:fflush.obj
 0001:0003af56       __fflush_nolock            1003bf56 f   LIBCMT:fflush.obj
 0001:0003b078       _fflush                    1003c078 f   LIBCMT:fflush.obj
 0001:0003b0cb       __flushall                 1003c0cb f   LIBCMT:fflush.obj
 0001:0003b0d4       __stbuf                    1003c0d4 f   LIBCMT:_sftbuf.obj
 0001:0003b170       __ftbuf                    1003c170 f   LIBCMT:_sftbuf.obj
 0001:0003b1a4       _vprintf_helper            1003c1a4 f   LIBCMT:vprintf.obj
 0001:0003b229       __vprintf_l                1003c229 f   LIBCMT:vprintf.obj
 0001:0003b246       __vprintf_s_l              1003c246 f   LIBCMT:vprintf.obj
 0001:0003b263       __vprintf_p_l              1003c263 f   LIBCMT:vprintf.obj
 0001:0003b280       _vprintf                   1003c280 f   LIBCMT:vprintf.obj
 0001:0003b29c       _vprintf_s                 1003c29c f   LIBCMT:vprintf.obj
 0001:0003b2b8       __vprintf_p                1003c2b8 f   LIBCMT:vprintf.obj
 0001:0003b2d4       _$I10_OUTPUT               1003c2d4 f   LIBCMT:_x10fout_.obj
 0001:0003bbcc       __set_controlfp            1003cbcc f   LIBCMT:_ieee87_.obj
 0001:0003bf3e       __statusfp                 1003cf3e f   LIBCMT:_ieee87_.obj
 0001:0003bfd0       __fpreset                  1003cfd0 f   LIBCMT:_ieee87_.obj
 0001:0003c209       __statusfp2                1003d209 f   LIBCMT:_ieee87_.obj
 0001:0003c263       __clearfp                  1003d263 f   LIBCMT:_ieee87_.obj
 0001:0003c33c       ___control87_2             1003d33c f   LIBCMT:_ieee87_.obj
 0001:0003c653       __control87                1003d653 f i LIBCMT:_ieee87_.obj
 0001:0003c965       __controlfp                1003d965 f   LIBCMT:_ieee87_.obj
 0001:0003cc7a       _ldexp                     1003dc7a f   LIBCMT:_ldexp_.obj
 0001:0003ce2c       ___ascii_stricmp           1003de2c f   LIBCMT:stricmp.obj
 0001:0003ce65       __stricmp_l                1003de65 f   LIBCMT:stricmp.obj
 0001:0003cf25       _stricmp                   1003df25 f   LIBCMT:stricmp.obj
 0001:0003cf25       __stricmp                  1003df25 f   LIBCMT:stricmp.obj
 0001:0003cf6c       __strnicmp_l               1003df6c f   LIBCMT:strnicmp.obj
 0001:0003d04e       __strnicmp                 1003e04e f   LIBCMT:strnicmp.obj
 0001:0003d15b       __itoa_s                   1003e15b f   LIBCMT:xtoas.obj
 0001:0003d185       __ltoa_s                   1003e185 f   LIBCMT:xtoas.obj
 0001:0003d1ac       __ultoa_s                  1003e1ac f   LIBCMT:xtoas.obj
 0001:0003d2b2       __i64toa_s                 1003e2b2 f   LIBCMT:xtoas.obj
 0001:0003d2e7       __ui64toa_s                1003e2e7 f   LIBCMT:xtoas.obj
 0001:0003d306       __flswbuf                  1003e306 f   LIBCMT:_flswbuf.obj
 0001:0003d47a       __read_nolock              1003e47a f   LIBCMT:read.obj
 0001:0003da31       __read                     1003ea31 f   LIBCMT:read.obj
 0001:0003db27       ___initconout              1003eb27 f   LIBCMT:initcon.obj
 0001:0003db46       ___termconout              1003eb46 f   LIBCMT:initcon.obj
 0001:0003db5d       __fclose_nolock            1003eb5d f   LIBCMT:fclose.obj
 0001:0003dbca       _fclose                    1003ebca f   LIBCMT:fclose.obj
 0001:0003dc3e       __commit                   1003ec3e f   LIBCMT:commit.obj
 0001:0003dd20       ___ascii_strnicmp          1003ed20 f   LIBCMT:_strnicm.obj
 0001:0003dd81       __close_nolock             1003ed81 f   LIBCMT:close.obj
 0001:0003de1d       __close                    1003ee1d f   LIBCMT:close.obj
 0001:0003dee1       __freebuf                  1003eee1 f   LIBCMT:_freebuf.obj
 0001:0003df12       _MultiByteToWideChar@24    1003ef12 f   kernel32:KERNEL32.dll
 0001:0003df18       _WideCharToMultiByte@32    1003ef18 f   kernel32:KERNEL32.dll
 0001:0003df1e       _GetProcAddress@8          1003ef1e f   kernel32:KERNEL32.dll
 0001:0003df24       _GetModuleHandleA@4        1003ef24 f   kernel32:KERNEL32.dll
 0001:0003df2a       _LoadLibraryA@4            1003ef2a f   kernel32:KERNEL32.dll
 0001:0003df30       _FreeLibrary@4             1003ef30 f   kernel32:KERNEL32.dll
 0001:0003df36       _RtlUnwind@16              1003ef36 f   kernel32:KERNEL32.dll
 0001:0003df3c       _DecodePointer@4           1003ef3c f   kernel32:KERNEL32.dll
 0001:0003df42       _EncodePointer@4           1003ef42 f   kernel32:KERNEL32.dll
 0001:0003df48       _GetCurrentThreadId@0      1003ef48 f   kernel32:KERNEL32.dll
 0001:0003df4e       _GetCommandLineA@0         1003ef4e f   kernel32:KERNEL32.dll
 0001:0003df54       _GetDriveTypeW@4           1003ef54 f   kernel32:KERNEL32.dll
 0001:0003df5a       _GetLastError@0            1003ef5a f   kernel32:KERNEL32.dll
 0001:0003df60       _GetFullPathNameA@16       1003ef60 f   kernel32:KERNEL32.dll
 0001:0003df66       _TlsAlloc@0                1003ef66 f   kernel32:KERNEL32.dll
 0001:0003df6c       _TlsGetValue@4             1003ef6c f   kernel32:KERNEL32.dll
 0001:0003df72       _TlsSetValue@8             1003ef72 f   kernel32:KERNEL32.dll
 0001:0003df78       _TlsFree@4                 1003ef78 f   kernel32:KERNEL32.dll
 0001:0003df7e       _InterlockedIncrement@4    1003ef7e f   kernel32:KERNEL32.dll
 0001:0003df84       _GetModuleHandleW@4        1003ef84 f   kernel32:KERNEL32.dll
 0001:0003df8a       _SetLastError@4            1003ef8a f   kernel32:KERNEL32.dll
 0001:0003df90       _InterlockedDecrement@4    1003ef90 f   kernel32:KERNEL32.dll
 0001:0003df96       _GetCurrentThread@0        1003ef96 f   kernel32:KERNEL32.dll
 0001:0003df9c       _TerminateProcess@8        1003ef9c f   kernel32:KERNEL32.dll
 0001:0003dfa2       _GetCurrentProcess@0       1003efa2 f   kernel32:KERNEL32.dll
 0001:0003dfa8       _UnhandledExceptionFilter@4 1003efa8 f   kernel32:KERNEL32.dll
 0001:0003dfae       _SetUnhandledExceptionFilter@4 1003efae f   kernel32:KERNEL32.dll
 0001:0003dfb4       _IsDebuggerPresent@0       1003efb4 f   kernel32:KERNEL32.dll
 0001:0003dfba       _IsProcessorFeaturePresent@4 1003efba f   kernel32:KERNEL32.dll
 0001:0003dfc0       _WriteFile@20              1003efc0 f   kernel32:KERNEL32.dll
 0001:0003dfc6       _GetStdHandle@4            1003efc6 f   kernel32:KERNEL32.dll
 0001:0003dfcc       _GetModuleFileNameW@12     1003efcc f   kernel32:KERNEL32.dll
 0001:0003dfd2       _GetLocaleInfoW@16         1003efd2 f   kernel32:KERNEL32.dll
 0001:0003dfd8       _ExitProcess@4             1003efd8 f   kernel32:KERNEL32.dll
 0001:0003dfde       _SetHandleCount@4          1003efde f   kernel32:KERNEL32.dll
 0001:0003dfe4       _InitializeCriticalSectionAndSpinCount@8 1003efe4 f   kernel32:KERNEL32.dll
 0001:0003dfea       _GetFileType@4             1003efea f   kernel32:KERNEL32.dll
 0001:0003dff0       _GetStartupInfoW@4         1003eff0 f   kernel32:KERNEL32.dll
 0001:0003dff6       _DeleteCriticalSection@4   1003eff6 f   kernel32:KERNEL32.dll
 0001:0003dffe       _FreeEnvironmentStringsW@4 1003effe f   kernel32:KERNEL32.dll
 0001:0003e004       _GetEnvironmentStringsW@0  1003f004 f   kernel32:KERNEL32.dll
 0001:0003e00a       _QueryPerformanceCounter@4 1003f00a f   kernel32:KERNEL32.dll
 0001:0003e010       _GetTickCount@0            1003f010 f   kernel32:KERNEL32.dll
 0001:0003e016       _GetCurrentProcessId@0     1003f016 f   kernel32:KERNEL32.dll
 0001:0003e01c       _GetSystemTimeAsFileTime@4 1003f01c f   kernel32:KERNEL32.dll
 0001:0003e022       _GetCPInfo@8               1003f022 f   kernel32:KERNEL32.dll
 0001:0003e028       _GetACP@0                  1003f028 f   kernel32:KERNEL32.dll
 0001:0003e02e       _GetOEMCP@0                1003f02e f   kernel32:KERNEL32.dll
 0001:0003e034       _IsValidCodePage@4         1003f034 f   kernel32:KERNEL32.dll
 0001:0003e03a       _LCMapStringW@24           1003f03a f   kernel32:KERNEL32.dll
 0001:0003e040       _GetCurrentDirectoryW@8    1003f040 f   kernel32:KERNEL32.dll
 0001:0003e046       _SetCurrentDirectoryW@4    1003f046 f   kernel32:KERNEL32.dll
 0001:0003e04c       _LeaveCriticalSection@4    1003f04c f   kernel32:KERNEL32.dll
 0001:0003e052       _FatalAppExitA@8           1003f052 f   kernel32:KERNEL32.dll
 0001:0003e058       _EnterCriticalSection@4    1003f058 f   kernel32:KERNEL32.dll
 0001:0003e05e       _RaiseException@16         1003f05e f   kernel32:KERNEL32.dll
 0001:0003e064       _SetFilePointer@16         1003f064 f   kernel32:KERNEL32.dll
 0001:0003e06a       _GetConsoleCP@0            1003f06a f   kernel32:KERNEL32.dll
 0001:0003e070       _GetConsoleMode@8          1003f070 f   kernel32:KERNEL32.dll
 0001:0003e076       _SetConsoleCtrlHandler@8   1003f076 f   kernel32:KERNEL32.dll
 0001:0003e07c       _LoadLibraryW@4            1003f07c f   kernel32:KERNEL32.dll
 0001:0003e082       _InterlockedExchange@8     1003f082 f   kernel32:KERNEL32.dll
 0001:0003e088       _GetStringTypeW@16         1003f088 f   kernel32:KERNEL32.dll
 0001:0003e08e       _GetUserDefaultLCID@0      1003f08e f   kernel32:KERNEL32.dll
 0001:0003e094       _GetLocaleInfoA@16         1003f094 f   kernel32:KERNEL32.dll
 0001:0003e09a       _EnumSystemLocalesA@8      1003f09a f   kernel32:KERNEL32.dll
 0001:0003e0a0       _IsValidLocale@8           1003f0a0 f   kernel32:KERNEL32.dll
 0001:0003e0a6       _SetStdHandle@8            1003f0a6 f   kernel32:KERNEL32.dll
 0001:0003e0ac       _WriteConsoleW@20          1003f0ac f   kernel32:KERNEL32.dll
 0001:0003e0b2       _ReadFile@20               1003f0b2 f   kernel32:KERNEL32.dll
 0001:0003e0b8       _CreateFileW@28            1003f0b8 f   kernel32:KERNEL32.dll
 0001:0003e0be       _CloseHandle@4             1003f0be f   kernel32:KERNEL32.dll
 0001:0003e0c4       _FlushFileBuffers@4        1003f0c4 f   kernel32:KERNEL32.dll
 0001:0003e0ca       _GetCPUInformation         1003f0ca f   tier0:tier0.dll
 0001:0003e0d0       _AssertValidStringPtr      1003f0d0 f   tier0:tier0.dll
 0001:0003e0d6       _Error                     1003f0d6 f   tier0:tier0.dll
 0001:0003e0dc       __AssertValidWritePtr      1003f0dc f   tier0:tier0.dll
 0001:0003e0e2       __AssertValidReadPtr       1003f0e2 f   tier0:tier0.dll
 0001:0003e0e8       _DevMsg                    1003f0e8 f   tier0:tier0.dll
 0001:0003e0ee       ?DevMsg@@YAXPBDZZ          1003f0ee f   tier0:tier0.dll
 0001:0003e0f4       _CommandLine_Tier0         1003f0f4 f   tier0:tier0.dll
 0001:0003e0fa       _GetCVarIF                 1003f0fa f   vstdlib:vstdlib.dll
 0001:0003e100       _KeyValuesSystem           1003f100 f   vstdlib:vstdlib.dll
 0001:0003e27a       __strupr_s_l               1003f27a f   LIBCMT:strupr.obj
 0001:0003e2af       __strupr_s                 1003f2af f   LIBCMT:strupr.obj
 0001:0003e2c6       __strupr_l                 1003f2c6 f   LIBCMT:strupr.obj
 0001:0003e2e0       _strupr                    1003f2e0 f   LIBCMT:strupr.obj
 0001:0003e2e0       __strupr                   1003f2e0 f   LIBCMT:strupr.obj
 0001:0003e33d       ?_strlwr_s_l_stat@@YAHPADIPAUlocaleinfo_struct@@@Z 1003f33d f   LIBCMT:strlwr.obj
 0001:0003e4bb       __strlwr_s_l               1003f4bb f   LIBCMT:strlwr.obj
 0001:0003e4ef       __strlwr_s                 1003f4ef f   LIBCMT:strlwr.obj
 0001:0003e506       __strlwr_l                 1003f506 f   LIBCMT:strlwr.obj
 0001:0003e520       _strlwr                    1003f520 f   LIBCMT:strlwr.obj
 0001:0003e520       __strlwr                   1003f520 f   LIBCMT:strlwr.obj
 0001:0003e57d       _strnlen                   1003f57d f   LIBCMT:strlen_s.obj
 0002:00000000       __imp__GetModuleFileNameA@12 10041000     kernel32:KERNEL32.dll
 0002:00000004       __imp__VirtualQuery@12     10041004     kernel32:KERNEL32.dll
 0002:00000008       __imp__HeapAlloc@12        10041008     kernel32:KERNEL32.dll
 0002:0000000c       __imp__GetProcessHeap@0    1004100c     kernel32:KERNEL32.dll
 0002:00000010       __imp__FlushFileBuffers@4  10041010     kernel32:KERNEL32.dll
 0002:00000014       __imp__CloseHandle@4       10041014     kernel32:KERNEL32.dll
 0002:00000018       __imp__CreateFileW@28      10041018     kernel32:KERNEL32.dll
 0002:0000001c       __imp__ReadFile@20         1004101c     kernel32:KERNEL32.dll
 0002:00000020       __imp__WriteConsoleW@20    10041020     kernel32:KERNEL32.dll
 0002:00000024       __imp__SetStdHandle@8      10041024     kernel32:KERNEL32.dll
 0002:00000028       __imp__MultiByteToWideChar@24 10041028     kernel32:KERNEL32.dll
 0002:0000002c       __imp__WideCharToMultiByte@32 1004102c     kernel32:KERNEL32.dll
 0002:00000030       __imp__GetProcAddress@8    10041030     kernel32:KERNEL32.dll
 0002:00000034       __imp__GetModuleHandleA@4  10041034     kernel32:KERNEL32.dll
 0002:00000038       __imp__LoadLibraryA@4      10041038     kernel32:KERNEL32.dll
 0002:0000003c       __imp__FreeLibrary@4       1004103c     kernel32:KERNEL32.dll
 0002:00000040       __imp__RtlUnwind@16        10041040     kernel32:KERNEL32.dll
 0002:00000044       __imp__DecodePointer@4     10041044     kernel32:KERNEL32.dll
 0002:00000048       __imp__EncodePointer@4     10041048     kernel32:KERNEL32.dll
 0002:0000004c       __imp__GetCurrentThreadId@0 1004104c     kernel32:KERNEL32.dll
 0002:00000050       __imp__GetCommandLineA@0   10041050     kernel32:KERNEL32.dll
 0002:00000054       __imp__GetDriveTypeW@4     10041054     kernel32:KERNEL32.dll
 0002:00000058       __imp__GetLastError@0      10041058     kernel32:KERNEL32.dll
 0002:0000005c       __imp__GetFullPathNameA@16 1004105c     kernel32:KERNEL32.dll
 0002:00000060       __imp__TlsAlloc@0          10041060     kernel32:KERNEL32.dll
 0002:00000064       __imp__TlsGetValue@4       10041064     kernel32:KERNEL32.dll
 0002:00000068       __imp__TlsSetValue@8       10041068     kernel32:KERNEL32.dll
 0002:0000006c       __imp__TlsFree@4           1004106c     kernel32:KERNEL32.dll
 0002:00000070       __imp__InterlockedIncrement@4 10041070     kernel32:KERNEL32.dll
 0002:00000074       __imp__GetModuleHandleW@4  10041074     kernel32:KERNEL32.dll
 0002:00000078       __imp__SetLastError@4      10041078     kernel32:KERNEL32.dll
 0002:0000007c       __imp__InterlockedDecrement@4 1004107c     kernel32:KERNEL32.dll
 0002:00000080       __imp__GetCurrentThread@0  10041080     kernel32:KERNEL32.dll
 0002:00000084       __imp__TerminateProcess@8  10041084     kernel32:KERNEL32.dll
 0002:00000088       __imp__GetCurrentProcess@0 10041088     kernel32:KERNEL32.dll
 0002:0000008c       __imp__UnhandledExceptionFilter@4 1004108c     kernel32:KERNEL32.dll
 0002:00000090       __imp__SetUnhandledExceptionFilter@4 10041090     kernel32:KERNEL32.dll
 0002:00000094       __imp__IsDebuggerPresent@0 10041094     kernel32:KERNEL32.dll
 0002:00000098       __imp__IsProcessorFeaturePresent@4 10041098     kernel32:KERNEL32.dll
 0002:0000009c       __imp__WriteFile@20        1004109c     kernel32:KERNEL32.dll
 0002:000000a0       __imp__GetStdHandle@4      100410a0     kernel32:KERNEL32.dll
 0002:000000a4       __imp__GetModuleFileNameW@12 100410a4     kernel32:KERNEL32.dll
 0002:000000a8       __imp__GetLocaleInfoW@16   100410a8     kernel32:KERNEL32.dll
 0002:000000ac       __imp__ExitProcess@4       100410ac     kernel32:KERNEL32.dll
 0002:000000b0       __imp__SetHandleCount@4    100410b0     kernel32:KERNEL32.dll
 0002:000000b4       __imp__InitializeCriticalSectionAndSpinCount@8 100410b4     kernel32:KERNEL32.dll
 0002:000000b8       __imp__GetFileType@4       100410b8     kernel32:KERNEL32.dll
 0002:000000bc       __imp__GetStartupInfoW@4   100410bc     kernel32:KERNEL32.dll
 0002:000000c0       __imp__DeleteCriticalSection@4 100410c0     kernel32:KERNEL32.dll
 0002:000000c4       __imp__FreeEnvironmentStringsW@4 100410c4     kernel32:KERNEL32.dll
 0002:000000c8       __imp__GetEnvironmentStringsW@0 100410c8     kernel32:KERNEL32.dll
 0002:000000cc       __imp__QueryPerformanceCounter@4 100410cc     kernel32:KERNEL32.dll
 0002:000000d0       __imp__GetTickCount@0      100410d0     kernel32:KERNEL32.dll
 0002:000000d4       __imp__GetCurrentProcessId@0 100410d4     kernel32:KERNEL32.dll
 0002:000000d8       __imp__GetSystemTimeAsFileTime@4 100410d8     kernel32:KERNEL32.dll
 0002:000000dc       __imp__GetCPInfo@8         100410dc     kernel32:KERNEL32.dll
 0002:000000e0       __imp__GetACP@0            100410e0     kernel32:KERNEL32.dll
 0002:000000e4       __imp__GetOEMCP@0          100410e4     kernel32:KERNEL32.dll
 0002:000000e8       __imp__IsValidCodePage@4   100410e8     kernel32:KERNEL32.dll
 0002:000000ec       __imp__LCMapStringW@24     100410ec     kernel32:KERNEL32.dll
 0002:000000f0       __imp__GetCurrentDirectoryW@8 100410f0     kernel32:KERNEL32.dll
 0002:000000f4       __imp__SetCurrentDirectoryW@4 100410f4     kernel32:KERNEL32.dll
 0002:000000f8       __imp__LeaveCriticalSection@4 100410f8     kernel32:KERNEL32.dll
 0002:000000fc       __imp__FatalAppExitA@8     100410fc     kernel32:KERNEL32.dll
 0002:00000100       __imp__EnterCriticalSection@4 10041100     kernel32:KERNEL32.dll
 0002:00000104       __imp__RaiseException@16   10041104     kernel32:KERNEL32.dll
 0002:00000108       __imp__SetFilePointer@16   10041108     kernel32:KERNEL32.dll
 0002:0000010c       __imp__GetConsoleCP@0      1004110c     kernel32:KERNEL32.dll
 0002:00000110       __imp__GetConsoleMode@8    10041110     kernel32:KERNEL32.dll
 0002:00000114       __imp__SetConsoleCtrlHandler@8 10041114     kernel32:KERNEL32.dll
 0002:00000118       __imp__LoadLibraryW@4      10041118     kernel32:KERNEL32.dll
 0002:0000011c       __imp__InterlockedExchange@8 1004111c     kernel32:KERNEL32.dll
 0002:00000120       __imp__GetStringTypeW@16   10041120     kernel32:KERNEL32.dll
 0002:00000124       __imp__GetUserDefaultLCID@0 10041124     kernel32:KERNEL32.dll
 0002:00000128       __imp__GetLocaleInfoA@16   10041128     kernel32:KERNEL32.dll
 0002:0000012c       __imp__EnumSystemLocalesA@8 1004112c     kernel32:KERNEL32.dll
 0002:00000130       __imp__IsValidLocale@8     10041130     kernel32:KERNEL32.dll
 0002:00000134       \177KERNEL32_NULL_THUNK_DATA 10041134     kernel32:KERNEL32.dll
 0002:00000138       __imp__Error               10041138     tier0:tier0.dll
 0002:0000013c       __imp_?DevMsg@@YAXPBDZZ    1004113c     tier0:tier0.dll
 0002:00000140       __imp__Msg                 10041140     tier0:tier0.dll
 0002:00000144       __imp__Warning             10041144     tier0:tier0.dll
 0002:00000148       __imp__g_pMemAlloc         10041148     tier0:tier0.dll
 0002:0000014c       __imp__GetCPUInformation   1004114c     tier0:tier0.dll
 0002:00000150       __imp__AssertValidStringPtr 10041150     tier0:tier0.dll
 0002:00000154       __imp__DevMsg              10041154     tier0:tier0.dll
 0002:00000158       __imp___AssertValidWritePtr 10041158     tier0:tier0.dll
 0002:0000015c       __imp___AssertValidReadPtr 1004115c     tier0:tier0.dll
 0002:00000160       __imp__CommandLine_Tier0   10041160     tier0:tier0.dll
 0002:00000164       \177tier0_NULL_THUNK_DATA  10041164     tier0:tier0.dll
 0002:00000168       __imp__RandomFloat         10041168     vstdlib:vstdlib.dll
 0002:0000016c       __imp__GetCVarIF           1004116c     vstdlib:vstdlib.dll
 0002:00000170       __imp__KeyValuesSystem     10041170     vstdlib:vstdlib.dll
 0002:00000174       \177vstdlib_NULL_THUNK_DATA 10041174     vstdlib:vstdlib.dll
 0002:00000178       ___xc_a                    10041178     LIBCMT:crt0init.obj
 0002:000001c4       ___xc_z                    100411c4     LIBCMT:crt0init.obj
 0002:000001c8       ___xi_a                    100411c8     LIBCMT:crt0init.obj
 0002:000001e0       ___xi_z                    100411e0     LIBCMT:crt0init.obj
 0002:000001e4       ___xp_a                    100411e4     LIBCMT:crt0init.obj
 0002:000001f0       ___xp_z                    100411f0     LIBCMT:crt0init.obj
 0002:000001f4       ___xt_a                    100411f4     LIBCMT:crt0init.obj
 0002:000001f8       ___xt_z                    100411f8     LIBCMT:crt0init.obj
 0002:0000021c       ?ProcessDetach@NativeDll@<CrtImplementationDetails>@@0IB 1004121c     memoverride.obj
 0002:00000220       ?ProcessAttach@NativeDll@<CrtImplementationDetails>@@0IB 10041220     memoverride.obj
 0002:00000224       ?ThreadAttach@NativeDll@<CrtImplementationDetails>@@0IB 10041224     memoverride.obj
 0002:00000228       ?ThreadDetach@NativeDll@<CrtImplementationDetails>@@0IB 10041228     memoverride.obj
 0002:0000022c       ?ProcessVerifier@NativeDll@<CrtImplementationDetails>@@0IB 1004122c     memoverride.obj
 0002:00000230       ??_C@_0BD@NADBKHMH@C?9runtime?5internal?$AA@ 10041230     memoverride.obj
 0002:00000248       __real@40dfffc000000000    10041248     serverplugin_bot.obj
 0002:00000250       ??_C@_00CNPNBAHC@?$AA@     10041250     serverplugin_bot.obj
 0002:00000254       ??_C@_0BG@FHJDLLKG@FCVAR_NEVER_AS_STRING?$AA@ 10041254     serverplugin_bot.obj
 0002:00000270       __real@bff0000000000000    10041270     serverplugin_bot.obj
 0002:00000278       __real@3eb0c6f7a0b5ed8d    10041278     serverplugin_bot.obj
 0002:00000280       __real@3fe0000000000000    10041280     serverplugin_bot.obj
 0002:00000288       __real@00000000            10041288     serverplugin_bot.obj
 0002:00000290       ??_7CBotCmd@@6B@           10041290     serverplugin_bot.obj
 0002:00000298       __real@4082c00000000000    10041298     serverplugin_bot.obj
 0002:000002a0       __real@4092c00000000000    100412a0     serverplugin_bot.obj
 0002:000002a8       __real@40000000            100412a8     serverplugin_bot.obj
 0002:000002b0       __real@3ff0000000000000    100412b0     serverplugin_bot.obj
 0002:000002bc       ??_7ITraceFilter@@6B@      100412bc     serverplugin_bot.obj
 0002:000002c4       __real@3dcccccd            100412c4     serverplugin_bot.obj
 0002:000002c8       __real@3f800000            100412c8     serverplugin_bot.obj
 0002:000002cc       ??_C@_0M@MNBJBCMD@joinclass?50?$AA@ 100412cc     serverplugin_bot.obj
 0002:000002d8       ??_C@_0L@NCGIGCAG@jointeam?53?$AA@ 100412d8     serverplugin_bot.obj
 0002:000002e4       ??_C@_08FKNMJMK@joingame?$AA@ 100412e4     serverplugin_bot.obj
 0002:000002f4       ??_7CTraceFilterWorldAndPropsOnly@@6B@ 100412f4     serverplugin_bot.obj
 0002:00000300       __real@402e000000000000    10041300     serverplugin_bot.obj
 0002:00000308       __real@bf800000            10041308     serverplugin_bot.obj
 0002:0000030c       __real@3f000000            1004130c     serverplugin_bot.obj
 0002:00000310       __real@4000000000000000    10041310     serverplugin_bot.obj
 0002:00000318       __real@c3340000            10041318     serverplugin_bot.obj
 0002:00000320       __real@4076800000000000    10041320     serverplugin_bot.obj
 0002:00000328       __real@43340000            10041328     serverplugin_bot.obj
 0002:00000330       __real@4024000000000000    10041330     serverplugin_bot.obj
 0002:00000338       __real@4042000000000000    10041338     serverplugin_bot.obj
 0002:00000340       __real@0000000000000000    10041340     serverplugin_bot.obj
 0002:00000348       __real@c1800000            10041348     serverplugin_bot.obj
 0002:0000034c       __real@42900000            1004134c     serverplugin_bot.obj
 0002:00000350       __real@41800000            10041350     serverplugin_bot.obj
 0002:00000354       __real@c1700000            10041354     serverplugin_bot.obj
 0002:00000358       __real@41700000            10041358     serverplugin_bot.obj
 0002:0000035c       ??_C@_06FNCAPEEA@Bot_?$CFi?$AA@ 1004135c     serverplugin_bot.obj
 0002:00000364       ??_C@_0BL@LBCPOBOF@plugin_bot_forcefireweapon?$AA@ 10041364     serverplugin_bot.obj
 0002:00000380       ??_C@_0CO@NNJHAIPB@Force?5bots?5with?5the?5specified?5we@ 10041380     serverplugin_bot.obj
 0002:000003b0       ??_C@_0BI@DPHNKEHN@plugin_bot_forceattack2?$AA@ 100413b0     serverplugin_bot.obj
 0002:000003c8       ??_C@_01GBGANLPD@0?$AA@    100413c8     serverplugin_bot.obj
 0002:000003cc       ??_C@_0BK@IIIPJCI@When?5firing?0?5use?5attack2?4?$AA@ 100413cc     serverplugin_bot.obj
 0002:000003e8       ??_C@_0BJ@LBJBILOP@plugin_bot_forceattackon?$AA@ 100413e8     serverplugin_bot.obj
 0002:00000404       ??_C@_0CL@FEILKIFG@When?5firing?0?5don?8t?5tap?5fire?0?5hol@ 10041404     serverplugin_bot.obj
 0002:00000430       ??_C@_0BD@MMCOAFA@plugin_bot_flipout?$AA@ 10041430     serverplugin_bot.obj
 0002:00000444       ??_C@_0CD@FJEMHCEH@When?5on?0?5all?5bots?5fire?5their?5gun@ 10041444     serverplugin_bot.obj
 0002:00000468       ??_C@_0BH@OKCPLICO@plugin_bot_changeclass?$AA@ 10041468     serverplugin_bot.obj
 0002:00000480       ??_C@_0DB@MJPFGPIJ@Force?5all?5bots?5to?5change?5to?5the?5@ 10041480     serverplugin_bot.obj
 0002:000004b4       ??_C@_0BB@PINCOLFD@plugin_bot_mimic?$AA@ 100414b4     serverplugin_bot.obj
 0002:000004c8       ??_C@_0CF@HKHCBGPP@Bot?5uses?5usercmd?5of?5player?5by?5in@ 100414c8     serverplugin_bot.obj
 0002:000004f0       ??_C@_0BM@BMKEEKDN@plugin_bot_mimic_yaw_offset?$AA@ 100414f0     serverplugin_bot.obj
 0002:0000050c       ??_C@_0BF@FNDGHLCD@Offsets?5the?5bot?5yaw?4?$AA@ 1004150c     serverplugin_bot.obj
 0002:00000524       ??_C@_0BD@DHEFMEBH@plugin_bot_sendcmd?$AA@ 10041524     serverplugin_bot.obj
 0002:00000538       ??_C@_0CL@HDMANDCM@Forces?5bots?5to?5send?5the?5specifie@ 10041538     serverplugin_bot.obj
 0002:00000564       ??_C@_0BC@GJPABEI@plugin_bot_crouch?$AA@ 10041564     serverplugin_bot.obj
 0002:00000578       ??_C@_0N@LBLODGDI@Bot?5crouches?$AA@ 10041578     serverplugin_bot.obj
 0002:00000588       ??_C@_0P@DCAALBEH@plugin_bot_add?$AA@ 10041588     serverplugin_bot.obj
 0002:00000598       ??_C@_0L@FBGONGHH@Add?5a?5bot?4?$AA@ 10041598     serverplugin_bot.obj
 0002:000005a8       ??_7IConCommandBaseAccessor@@6B@ 100415a8     serverplugin_convar.obj
 0002:000005ac       ??_C@_0P@FDPCGJPG@VEngineCvar003?$AA@ 100415ac     serverplugin_convar.obj
 0002:000005c0       ??_7CPluginConVarAccessor@@6B@ 100415c0     serverplugin_convar.obj
 0002:000005c8       ??_7IGameEventListener@@6B@ 100415c8     serverplugin_empty.obj
 0002:000005d4       ??_7IServerPluginCallbacks@@6B@ 100415d4     serverplugin_empty.obj
 0002:0000061c       ??_7CEmptyServerPlugin@@6BIServerPluginCallbacks@@@ 1004161c     serverplugin_empty.obj
 0002:00000664       __real@400ccccd            10041664     serverplugin_empty.obj
 0002:00000668       ??_C@_0BB@GGLDEOJH@VEngineRandom001?$AA@ 10041668     serverplugin_empty.obj
 0002:0000067c       ??_C@_0BF@MCLCNLOC@EngineTraceServer003?$AA@ 1004167c     serverplugin_empty.obj
 0002:00000694       ??_C@_0BI@MINMEAOF@ISERVERPLUGINHELPERS001?$AA@ 10041694     serverplugin_empty.obj
 0002:000006ac       ??_C@_0P@PAEMGLHD@VFileSystem017?$AA@ 100416ac     serverplugin_empty.obj
 0002:000006bc       ??_C@_0BF@IFKKOJOJ@GAMEEVENTSMANAGER001?$AA@ 100416bc     serverplugin_empty.obj
 0002:000006d4       ??_C@_0BB@EPGHCKHN@VEngineServer021?$AA@ 100416d4     serverplugin_empty.obj
 0002:000006e8       ??_C@_0CI@MLOIEJHN@Unable?5to?5load?5botcontroller?0?5ig@ 100416e8     serverplugin_empty.obj
 0002:00000710       ??_C@_0O@KMGCIEJP@BotManager001?$AA@ 10041710     serverplugin_empty.obj
 0002:00000720       ??_C@_0CM@DHKFEKEL@Unable?5to?5load?5playerinfomanager@ 10041720     serverplugin_empty.obj
 0002:0000074c       ??_C@_0BF@KHEIIEDP@PlayerInfoManager002?$AA@ 1004174c     serverplugin_empty.obj
 0002:00000764       ??_C@_0BE@ILKNPCNC@Emtpy?9Plugin?0?5Valve?$AA@ 10041764     serverplugin_empty.obj
 0002:00000778       ??_C@_0BM@LHJGLBIE@Level?5?$CC?$CFs?$CC?5has?5been?5loaded?6?$AA@ 10041778     serverplugin_empty.obj
 0002:00000794       ??_C@_0CG@NOGHMIGC@Your?5name?5changed?5to?5?$CC?$CFs?$CC?5?$CIfrom?5@ 10041794     serverplugin_empty.obj
 0002:000007bc       ??_C@_04MEMAJGDJ@name?$AA@ 100417bc     serverplugin_empty.obj
 0002:000007c4       ??_C@_0DD@CBDJMHDL@CEmptyServerPlugin?3?3FireGameEven@ 100417c4     serverplugin_empty.obj
 0002:000007f8       ??_C@_0BB@HBBHGMIB@Version?31?40?40?40?6?$AA@ 100417f8     serverplugin_empty.obj
 0002:00000810       ??_7CEmptyServerPlugin@@6BIGameEventListener@@@ 10041810     serverplugin_empty.obj
 0002:00000818       ??_C@_04CLCEDBPF@time?$AA@ 10041818     serverplugin_empty.obj
 0002:00000820       ??_C@_05KJNJLLGA@level?$AA@ 10041820     serverplugin_empty.obj
 0002:00000828       ??_C@_05PEENBMOG@color?$AA@ 10041828     serverplugin_empty.obj
 0002:00000830       ??_C@_0M@FOMKIIJH@Hello?5there?$AA@ 10041830     serverplugin_empty.obj
 0002:0000083c       ??_C@_05PHLGJONK@title?$AA@ 1004183c     serverplugin_empty.obj
 0002:00000844       ??_C@_05COLMCDPH@Hello?$AA@ 10041844     serverplugin_empty.obj
 0002:0000084c       ??_C@_03GLPMCEFE@msg?$AA@  1004184c     serverplugin_empty.obj
 0002:00000850       ??_C@_03BANJEMDJ@say?$AA@  10041850     serverplugin_empty.obj
 0002:00000854       ??_C@_0BA@FNDCHBCB@Enter?5something?$AA@ 10041854     serverplugin_empty.obj
 0002:00000864       ??_C@_05OLGJEJBH@Stuff?$AA@ 10041864     serverplugin_empty.obj
 0002:0000086c       ??_C@_05HNNDEAND@entry?$AA@ 1004186c     serverplugin_empty.obj
 0002:00000874       ??_C@_0BE@JEEPPAPE@Just?5a?5simple?5hello?$AA@ 10041874     serverplugin_empty.obj
 0002:00000888       ??_C@_0EA@CIJPNFIE@This?5is?5a?5long?5long?5long?5text?5st@ 10041888     serverplugin_empty.obj
 0002:000008c8       ??_C@_0P@HMAGMGE@A?5rich?5message?$AA@ 100418c8     serverplugin_empty.obj
 0002:000008d8       ??_C@_04BLFEJHBC@rich?$AA@ 100418d8     serverplugin_empty.obj
 0002:000008e0       ??_C@_07KMMNMMFF@command?$AA@ 100418e0     serverplugin_empty.obj
 0002:000008e8       ??_C@_08ELICKKFH@option?$CFi?$AA@ 100418e8     serverplugin_empty.obj
 0002:000008f4       ??_C@_09EAHIBBFF@Option?5?$CFi?$AA@ 100418f4     serverplugin_empty.obj
 0002:00000900       ??_C@_02IKAHHCAI@?$CFi?$AA@ 10041900     serverplugin_empty.obj
 0002:00000904       ??_C@_0BJ@PBCALLLO@Pick?5an?5option?6Or?5don?8t?4?$AA@ 10041904     serverplugin_empty.obj
 0002:00000920       ??_C@_0BM@GFIPMON@You?8ve?5got?5options?0?5hit?5ESC?$AA@ 10041920     serverplugin_empty.obj
 0002:0000093c       ??_C@_04EEIGNHLG@menu?$AA@ 1004193c     serverplugin_empty.obj
 0002:00000944       ??_C@_0BK@JIPONJEI@ISERVERPLUGINCALLBACKS001?$AA@ 10041944     serverplugin_empty.obj
 0002:00000960       ??_C@_0O@BHBBOCBB@empty_version?$AA@ 10041960     serverplugin_empty.obj
 0002:00000970       ??_C@_0CH@LOPCFAAE@prints?5the?5version?5of?5the?5empty?5@ 10041970     serverplugin_empty.obj
 0002:00000998       ??_C@_09LMEJGGDD@empty_log?$AA@ 10041998     serverplugin_empty.obj
 0002:000009a4       ??_C@_0CF@EBLEFAEB@logs?5the?5version?5of?5the?5empty?5pl@ 100419a4     serverplugin_empty.obj
 0002:000009cc       ??_C@_0N@MEPEJGFK@plugin_empty?$AA@ 100419cc     serverplugin_empty.obj
 0002:000009dc       ??_C@_0BE@BEOFDBNA@Example?5plugin?5cvar?$AA@ 100419dc     serverplugin_empty.obj
 0002:000009f0       ?nanmask@@3HB              100419f0     mathlib:mathlib_base.obj
 0002:00000ab8       __real@3f76800000000000    10041ab8     mathlib:mathlib_base.obj
 0002:00000ac0       __real@4066c16c20000000    10041ac0     mathlib:mathlib_base.obj
 0002:00000ac8       __real@3e80000000000000    10041ac8     mathlib:mathlib_base.obj
 0002:00000ad0       __real@40400000            10041ad0     mathlib:mathlib_base.obj
 0002:00000ad8       __real@3f70000000000000    10041ad8     mathlib:mathlib_base.obj
 0002:00000ae0       __real@400921fb54442d18    10041ae0     mathlib:mathlib_base.obj
 0002:00000ae8       __real@358637bd            10041ae8     mathlib:mathlib_base.obj
 0002:00000af0       __real@4010000000000000    10041af0     mathlib:mathlib_base.obj
 0002:00000af8       __real@404ca5dc00000000    10041af8     mathlib:mathlib_base.obj
 0002:00000b00       __real@3a83126f            10041b00     mathlib:mathlib_base.obj
 0002:00000b08       __real@4066800000000000    10041b08     mathlib:mathlib_base.obj
 0002:00000b10       __real@42b40000            10041b10     mathlib:mathlib_base.obj
 0002:00000b14       __real@43870000            10041b14     mathlib:mathlib_base.obj
 0002:00000b18       __real@3f91df46a0000000    10041b18     mathlib:mathlib_base.obj
 0002:00000b20       __real@c7c34f80            10041b20     mathlib:mathlib_base.obj
 0002:00000b24       __real@47c34f80            10041b24     mathlib:mathlib_base.obj
 0002:00000b28       __real@40019999a0000000    10041b28     mathlib:mathlib_base.obj
 0002:00000b30       __real@3fdd1745c0000000    10041b30     mathlib:mathlib_base.obj
 0002:00000b38       __real@406fe00000000000    10041b38     mathlib:mathlib_base.obj
 0002:00000b40       __real@3fee666660000000    10041b40     mathlib:mathlib_base.obj
 0002:00000b48       __real@408ff80000000000    10041b48     mathlib:mathlib_base.obj
 0002:00000b50       __real@bff7154ca0000000    10041b50     mathlib:mathlib_base.obj
 0002:00000b58       __real@3ff921fb54442d18    10041b58     mathlib:mathlib_base.obj
 0002:00000b60       __real@3eb0c6f7a0000000    10041b60     mathlib:mathlib_base.obj
 0002:00000b68       __real@c014000000000000    10041b68     mathlib:mathlib_base.obj
 0002:00000b70       __real@c008000000000000    10041b70     mathlib:mathlib_base.obj
 0002:00000b78       __real@4008000000000000    10041b78     mathlib:mathlib_base.obj
 0002:00000b80       __real@bfe0000000000000    10041b80     mathlib:mathlib_base.obj
 0002:00000b88       __real@4018000000000000    10041b88     mathlib:mathlib_base.obj
 0002:00000b90       __real@c000000000000000    10041b90     mathlib:mathlib_base.obj
 0002:00000b98       __real@3fe5555560000000    10041b98     mathlib:mathlib_base.obj
 0002:00000ba0       __real@c018000000000000    10041ba0     mathlib:mathlib_base.obj
 0002:00000ba8       __real@3fc5555560000000    10041ba8     mathlib:mathlib_base.obj
 0002:00000bb0       __real@3ff4000000000000    10041bb0     mathlib:mathlib_base.obj
 0002:00000bb8       __real@3fe8000000000000    10041bb8     mathlib:mathlib_base.obj
 0002:00000bc0       __real@3f400000            10041bc0     mathlib:mathlib_base.obj
 0002:00000bc4       __real@3727c5ac            10041bc4     mathlib:mathlib_base.obj
 0002:00000bc8       __real@c6800000            10041bc8     mathlib:mathlib_base.obj
 0002:00000bd0       __real@405fc00000000000    10041bd0     mathlib:mathlib_base.obj
 0002:00000bd8       __real@3f800001            10041bd8     mathlib:mathlib_base.obj
 0002:00000be0       __real@3f50000000000000    10041be0     mathlib:mathlib_base.obj
 0002:00000be8       __real@3e800000            10041be8     mathlib:mathlib_base.obj
 0002:00000bf0       __real@3fec000000000000    10041bf0     mathlib:mathlib_base.obj
 0002:00000bf8       __real@3fc0000000000000    10041bf8     mathlib:mathlib_base.obj
 0002:00000c00       __real@3fb3333333333333    10041c00     mathlib:mathlib_base.obj
 0002:00000c08       __real@3d4ccccd            10041c08     mathlib:mathlib_base.obj
 0002:00000c0c       __real@3e000000            10041c0c     mathlib:mathlib_base.obj
 0002:00000c10       __real@3fa999999999999a    10041c10     mathlib:mathlib_base.obj
 0002:00000c18       __real@437f0000            10041c18     mathlib:mathlib_base.obj
 0002:00000c20       ??_7ConCommandBase@@6B@    10041c20     tier1:convar.obj
 0002:00000c4c       ??_7ConVar@@6B@            10041c4c     tier1:convar.obj
 0002:00000c94       ??_C@_02NJPGOMH@?$CFf?$AA@ 10041c94     tier1:convar.obj
 0002:00000c98       ??_C@_02DPKJAMEF@?$CFd?$AA@ 10041c98     tier1:convar.obj
 0002:00000ca0       ??_7ConCommand@@6B@        10041ca0     tier1:convar.obj
 0002:00000cd8       __real@4050400000000000    10041cd8     tier1:strtools.obj
 0002:00000ce0       __real@4058400000000000    10041ce0     tier1:strtools.obj
 0002:00000ce8       __real@4048000000000000    10041ce8     tier1:strtools.obj
 0002:00000cf0       __real@4030000000000000    10041cf0     tier1:strtools.obj
 0002:00000cf8       ??_C@_0CH@DNILKGJA@V_AppendSlash?3?5ran?5out?5of?5space?5@ 10041cf8     tier1:strtools.obj
 0002:00000d20       ??_C@_01CLKCMJKC@?5?$AA@   10041d20     tier1:strtools.obj
 0002:00000d24       ??_C@_01LFCBOECM@?4?$AA@   10041d24     tier1:strtools.obj
 0002:00000d28       ??_C@_08BIBOIFBG@?$CF?$CF?4?$CFif?$CFs?$AA@ 10041d28     tier1:strtools.obj
 0002:00000d34       ??_C@_04EMEGLOCB@?$CFi?$CFs?$AA@ 10041d34     tier1:strtools.obj
 0002:00000d40       __real@3ee4f8b588e368f1    10041d40     tier1:strtools.obj
 0002:00000d48       ??_C@_06LCIDCBMH@?5bytes?$AA@ 10041d48     tier1:strtools.obj
 0002:00000d50       ??_C@_03MAAJMAHL@?5KB?$AA@ 10041d50     tier1:strtools.obj
 0002:00000d54       ??_C@_03MEIELMMJ@?5MB?$AA@ 10041d54     tier1:strtools.obj
 0002:00000d58       __real@447a0000            10041d58     tier1:strtools.obj
 0002:00000d5c       __real@44800000            10041d5c     tier1:strtools.obj
 0002:00000d60       ??_C@_04OHGLKFFN@?$CF03d?$AA@ 10041d60     tier1:strtools.obj
 0002:00000d68       ??_C@_05CMAMCNEC@?$CF03d?0?$AA@ 10041d68     tier1:strtools.obj
 0002:00000d70       ??_C@_03DPLIHHLN@?$CFd?0?$AA@ 10041d70     tier1:strtools.obj
 0002:00000d74       ??_C@_01JOAMLHOP@?9?$AA@   10041d74     tier1:strtools.obj
 0002:00000d78       ??_C@_04NOJCDH@?$CF02x?$AA@ 10041d78     tier1:strtools.obj
 0002:00000d80       ??_C@_03OOAAEEIB@?4?$CFc?$AA@ 10041d80     tier1:strtools.obj
 0002:00000d84       ??_C@_02CEGDFPFP@?4?2?$AA@ 10041d84     tier1:strtools.obj
 0002:00000d88       ??_C@_02CAHBHFGK@?4?1?$AA@ 10041d88     tier1:strtools.obj
 0002:00000d8c       ??_C@_0DB@FOILCOJM@V_MakeAbsolutePath?3?5tried?5to?5?$CC?4?4@ 10041d8c     tier1:strtools.obj
 0002:00000dc0       ??_C@_0CE@INIPJBEP@V_MakeAbsolutePath?3?5_getcwd?5fail@ 10041dc0     tier1:strtools.obj
 0002:00000de4       ??_C@_07CIFAGBMG@unknown?$AA@ 10041de4     tier1:KeyValues.obj
 0002:00000dec       ??_C@_04HIBGFPH@NULL?$AA@  10041dec     tier1:KeyValues.obj
 0002:00000df4       ??_C@_01EEMJAFIK@?6?$AA@   10041df4     tier1:KeyValues.obj
 0002:00000df8       ??_C@_08KKMCJABH@?$CI?$CK?$CFs?$CK?$CJ?0?5?$AA@ 10041df8     tier1:KeyValues.obj
 0002:00000e04       ??_C@_04ONKFDMMC@?$CFs?0?5?$AA@ 10041e04     tier1:KeyValues.obj
 0002:00000e0c       ??_C@_0CA@NDDGCEEP@KeyValues?5Error?3?5?$CFs?5in?5file?5?$CFs?6?$AA@ 10041e0c     tier1:KeyValues.obj
 0002:00000e2c       ??_C@_0BE@CCEENLEF@?5ReadToken?5overflow?$AA@ 10041e2c     tier1:KeyValues.obj
 0002:00000e40       ??_C@_02JDPG@rb?$AA@       10041e40     tier1:KeyValues.obj
 0002:00000e44       ??_C@_01GPOEFGEJ@?7?$AA@   10041e44     tier1:KeyValues.obj
 0002:00000e48       ??_C@_02KGHIDFGE@?$HN?6?$AA@ 10041e48     tier1:KeyValues.obj
 0002:00000e50       ??_C@_0EE@MCLHPPL@KeyValues?3?3RecursiveSaveToFile?3?5@ 10041e50     tier1:KeyValues.obj
 0002:00000e94       ??_C@_04FHLHEGKD@?$CC?7?7?$CC?$AA@ 10041e94     tier1:KeyValues.obj
 0002:00000e9c       ??_C@_02KCPFEJNG@?$HL?6?$AA@ 10041e9c     tier1:KeyValues.obj
 0002:00000ea0       ??_C@_02MBJIFMOJ@?$CC?6?$AA@ 10041ea0     tier1:KeyValues.obj
 0002:00000ea4       ??_C@_01BJJEKLCA@?$CC?$AA@ 10041ea4     tier1:KeyValues.obj
 0002:00000ea8       ??_C@_0M@ONLGMOD@?$CFf?5?$CFf?5?$CFf?5?$CFf?$AA@ 10041ea8     tier1:KeyValues.obj
 0002:00000eb4       ??_C@_11LOCGONAA@?$AA?$AA@ 10041eb4     tier1:KeyValues.obj
 0002:00000eb8       ??_C@_02GMHACPFF@?$CFu?$AA@ 10041eb8     tier1:KeyValues.obj
 0002:00000ebc       ??_C@_0DO@LBPKGNFO@KeyValues?3?3SaveToFile?3?5couldn?8t?5@ 10041ebc     tier1:KeyValues.obj
 0002:00000efc       ??_C@_02GMLFBBN@wb?$AA@    10041efc     tier1:KeyValues.obj
 0002:00000f00       ??_C@_05OKCMKDO@?$CFI64i?$AA@ 10041f00     tier1:KeyValues.obj
 0002:00000f08       ??_C@_1M@PMHABONK@?$AA?$CF?$AAI?$AA6?$AA4?$AAi?$AA?$AA@ 10041f08     tier1:KeyValues.obj
 0002:00000f14       ??_C@_15KNBIKKIN@?$AA?$CF?$AAd?$AA?$AA@ 10041f14     tier1:KeyValues.obj
 0002:00000f1c       ??_C@_15HBBGCAG@?$AA?$CF?$AAf?$AA?$AA@ 10041f1c     tier1:KeyValues.obj
 0002:00000f24       ??_C@_0CH@FAEPDIPE@RecursiveLoadFromBuffer?3?5?5got?5?$HN?5@ 10041f24     tier1:KeyValues.obj
 0002:00000f4c       ??_C@_0CH@HEKCOJBB@RecursiveLoadFromBuffer?3?5?5got?5NU@ 10041f4c     tier1:KeyValues.obj
 0002:00000f74       ??_C@_0CM@EGPGDPNF@RecursiveLoadFromBuffer?3?5?5got?5em@ 10041f74     tier1:KeyValues.obj
 0002:00000fa0       ??_C@_0DF@BNKODCEE@RecursiveLoadFromBuffer?3?5?5got?5EO@ 10041fa0     tier1:KeyValues.obj
 0002:00000fd8       ??_C@_0EH@OAIGODPC@KeyValues?3?3ParseIncludedKeys?3?5Co@ 10041fd8     tier1:KeyValues.obj
 0002:00001020       ??_C@_0BK@NIPBBFNB@LoadFromBuffer?3?5missing?5?$HL?$AA@ 10042020     tier1:KeyValues.obj
 0002:0000103c       ??_C@_0BC@NGELGJPP@?$CDinclude?5is?5NULL?5?$AA@ 1004203c     tier1:KeyValues.obj
 0002:00001050       ??_C@_08GPLAJCBH@?$CDinclude?$AA@ 10042050     tier1:KeyValues.obj
 0002:0000105c       ??_C@_08PNLNEKOB@kernel32?$AA@ 1004205c     tier1:interface.obj
 0002:00001068       ??_C@_0BC@KNBMEBEO@IsDebuggerPresent?$AA@ 10042068     tier1:interface.obj
 0002:0000107c       ??_C@_04HLONOPDM@?4dll?$AA@ 1004207c     tier1:interface.obj
 0002:00001084       ??_C@_0BM@OIEJAJOK@Module?5?$CFs?5is?5a?5debug?5build?6?$AA@ 10042084     tier1:interface.obj
 0002:000010a0       ??_C@_0L@EJCNAOMG@BuiltDebug?$AA@ 100420a0     tier1:interface.obj
 0002:000010ac       ??_C@_0M@OJHILNKA@?9allowdebug?$AA@ 100420ac     tier1:interface.obj
 0002:000010b8       ??_C@_09ILGMALND@?$CFs?1bin?1?$CFs?$AA@ 100420b8     tier1:interface.obj
 0002:000010c4       ??_C@_0BA@OBHPCBFP@CreateInterface?$AA@ 100420c4     tier1:interface.obj
 0002:000010d4       ??_C@_01GEODFPGF@?8?$AA@   100420d4     tier1:utlbuffer.obj
 0002:000010d8       ??_C@_01OGPIMHDM@?$DP?$AA@ 100420d8     tier1:utlbuffer.obj
 0002:000010dc       ??_C@_01KICIPPFI@?2?$AA@   100420dc     tier1:utlbuffer.obj
 0002:000010e0       ??_C@_01MCMALHOG@a?$AA@    100420e0     tier1:utlbuffer.obj
 0002:000010e4       ??_C@_01INIBCBCB@f?$AA@    100420e4     tier1:utlbuffer.obj
 0002:000010e8       ??_C@_01KDCPPGHE@r?$AA@    100420e8     tier1:utlbuffer.obj
 0002:000010ec       ??_C@_01OJONOECF@b?$AA@    100420ec     tier1:utlbuffer.obj
 0002:000010f0       ??_C@_01MHEDDDHA@v?$AA@    100420f0     tier1:utlbuffer.obj
 0002:000010f4       ??_C@_01PFHFFBPC@t?$AA@    100420f4     tier1:utlbuffer.obj
 0002:000010f8       ??_C@_01EFFIKLCJ@n?$AA@    100420f8     tier1:utlbuffer.obj
 0002:00001100       ??_7CUtlCharConversion@@6B@ 10042100     tier1:utlbuffer.obj
 0002:00001108       ??_7CUtlNoEscConversion@@6B@ 10042108     tier1:utlbuffer.obj
 0002:00001110       ??_7CUtlCStringConversion@@6B@ 10042110     tier1:utlbuffer.obj
 0002:00001114       ??_C@_02HAOIJKIC@?$CFc?$AA@ 10042114     tier1:utlbuffer.obj
 0002:00001118       ??_C@_02PCIJFNDE@?$AN?6?$AA@ 10042118     tier1:utlbuffer.obj
 0002:0000111c       __FPinit                   1004211c     LIBCMT:_fpinit_.obj
 0002:00001124       ??_7type_info@@6B@         10042124     LIBCMT:typinfo.obj
 0002:00001128       __pRawDllMain              10042128     LIBCMT:dllcrt0.obj
 0002:00001128       __pDefaultRawDllMain       10042128     LIBCMT:dllcrt0.obj
 0002:00001130       __OP_FMODjmptab            10042130     LIBCMT:_87fmod_.obj
 0002:000011d0       __pDestructExceptionObject 100421d0     LIBCMT:frame.obj
 0002:000011d8       ??_7bad_exception@std@@6B@ 100421d8     LIBCMT:frame.obj
 0002:000011e0       ??_C@_0O@DPKOEFFH@bad?5exception?$AA@ 100421e0     LIBCMT:frame.obj
 0002:000011f0       ??_C@_1BK@DBDEIDLH@?$AAK?$AAE?$AAR?$AAN?$AAE?$AAL?$AA3?$AA2?$AA?4?$AAD?$AAL?$AAL?$AA?$AA@ 100421f0     LIBCMT:tidtable.obj
 0002:0000120c       ??_C@_07PEJMOBNF@FlsFree?$AA@ 1004220c     LIBCMT:tidtable.obj
 0002:00001214       ??_C@_0M@JCPCPOEF@FlsSetValue?$AA@ 10042214     LIBCMT:tidtable.obj
 0002:00001220       ??_C@_0M@GDNOONDI@FlsGetValue?$AA@ 10042220     LIBCMT:tidtable.obj
 0002:0000122c       ??_C@_08KNHFBNJ@FlsAlloc?$AA@ 1004222c     LIBCMT:tidtable.obj
 0002:00001240       ??_C@_1O@CEDCILHN@?$AA?$CI?$AAn?$AAu?$AAl?$AAl?$AA?$CJ?$AA?$AA@ 10042240     LIBCMT:output.obj
 0002:00001250       ??_C@_06OJHGLDPL@?$CInull?$CJ?$AA@ 10042250     LIBCMT:output.obj
 0002:00001258       ___lookuptable             10042258     LIBCMT:output.obj
 0002:000012b4       ??_C@_05KLBDPFGC@e?$CL000?$AA@ 100422b4     LIBCMT:cvt.obj
 0002:000012bc       ??_C@_1BO@BKOMIGKJ@?$AAr?$AAu?$AAn?$AAt?$AAi?$AAm?$AAe?$AA?5?$AAe?$AAr?$AAr?$AAo?$AAr?$AA?5?$AA?$AA@ 100422bc     LIBCMT:crt0msg.obj
 0002:000012dc       ??_C@_15JNBOKNOG@?$AA?$AN?$AA?6?$AA?$AA@ 100422dc     LIBCMT:crt0msg.obj
 0002:000012e4       ??_C@_1BM@JBBEPPHI@?$AAT?$AAL?$AAO?$AAS?$AAS?$AA?5?$AAe?$AAr?$AAr?$AAo?$AAr?$AA?$AN?$AA?6?$AA?$AA@ 100422e4     LIBCMT:crt0msg.obj
 0002:00001300       ??_C@_1BK@KMOMNAAI@?$AAS?$AAI?$AAN?$AAG?$AA?5?$AAe?$AAr?$AAr?$AAo?$AAr?$AA?$AN?$AA?6?$AA?$AA@ 10042300     LIBCMT:crt0msg.obj
 0002:0000131c       ??_C@_1BO@BFCDCGC@?$AAD?$AAO?$AAM?$AAA?$AAI?$AAN?$AA?5?$AAe?$AAr?$AAr?$AAo?$AAr?$AA?$AN?$AA?6?$AA?$AA@ 1004231c     LIBCMT:crt0msg.obj
 0002:00001340       ??_C@_1BOO@KGEDBGAJ@?$AAR?$AA6?$AA0?$AA3?$AA3?$AA?$AN?$AA?6?$AA?9?$AA?5?$AAA?$AAt?$AAt?$AAe?$AAm?$AAp?$AAt?$AA?5?$AAt?$AAo?$AA?5?$AAu?$AAs?$AAe?$AA?5?$AAM?$AAS?$AAI?$AAL?$AA?5?$AAc?$AAo?$AAd@ 10042340     LIBCMT:crt0msg.obj
 0002:00001530       ??_C@_1GG@GOPILAJP@?$AAR?$AA6?$AA0?$AA3?$AA2?$AA?$AN?$AA?6?$AA?9?$AA?5?$AAn?$AAo?$AAt?$AA?5?$AAe?$AAn?$AAo?$AAu?$AAg?$AAh?$AA?5?$AAs?$AAp?$AAa?$AAc?$AAe?$AA?5?$AAf?$AAo?$AAr?$AA?5?$AAl?$AAo@ 10042530     LIBCMT:crt0msg.obj
 0002:00001598       ??_C@_1MG@ENCOOIDF@?$AAR?$AA6?$AA0?$AA3?$AA1?$AA?$AN?$AA?6?$AA?9?$AA?5?$AAA?$AAt?$AAt?$AAe?$AAm?$AAp?$AAt?$AA?5?$AAt?$AAo?$AA?5?$AAi?$AAn?$AAi?$AAt?$AAi?$AAa?$AAl?$AAi?$AAz?$AAe?$AA?5?$AAt@ 10042598     LIBCMT:crt0msg.obj
 0002:00001660       ??_C@_1DO@BMFCDCD@?$AAR?$AA6?$AA0?$AA3?$AA0?$AA?$AN?$AA?6?$AA?9?$AA?5?$AAC?$AAR?$AAT?$AA?5?$AAn?$AAo?$AAt?$AA?5?$AAi?$AAn?$AAi?$AAt?$AAi?$AAa?$AAl?$AAi?$AAz?$AAe?$AAd?$AA?$AN?$AA?6?$AA?$AA@ 10042660     LIBCMT:crt0msg.obj
 0002:000016a0       ??_C@_1EK@HHFLMAOL@?$AAR?$AA6?$AA0?$AA2?$AA8?$AA?$AN?$AA?6?$AA?9?$AA?5?$AAu?$AAn?$AAa?$AAb?$AAl?$AAe?$AA?5?$AAt?$AAo?$AA?5?$AAi?$AAn?$AAi?$AAt?$AAi?$AAa?$AAl?$AAi?$AAz?$AAe?$AA?5?$AAh?$AAe@ 100426a0     LIBCMT:crt0msg.obj
 0002:000016f0       ??_C@_1GK@MFGOKLAG@?$AAR?$AA6?$AA0?$AA2?$AA7?$AA?$AN?$AA?6?$AA?9?$AA?5?$AAn?$AAo?$AAt?$AA?5?$AAe?$AAn?$AAo?$AAu?$AAg?$AAh?$AA?5?$AAs?$AAp?$AAa?$AAc?$AAe?$AA?5?$AAf?$AAo?$AAr?$AA?5?$AAl?$AAo@ 100426f0     LIBCMT:crt0msg.obj
 0002:00001760       ??_C@_1GK@MCAAGJMO@?$AAR?$AA6?$AA0?$AA2?$AA6?$AA?$AN?$AA?6?$AA?9?$AA?5?$AAn?$AAo?$AAt?$AA?5?$AAe?$AAn?$AAo?$AAu?$AAg?$AAh?$AA?5?$AAs?$AAp?$AAa?$AAc?$AAe?$AA?5?$AAf?$AAo?$AAr?$AA?5?$AAs?$AAt@ 10042760     LIBCMT:crt0msg.obj
 0002:000017d0       ??_C@_1EM@MAADIHMB@?$AAR?$AA6?$AA0?$AA2?$AA5?$AA?$AN?$AA?6?$AA?9?$AA?5?$AAp?$AAu?$AAr?$AAe?$AA?5?$AAv?$AAi?$AAr?$AAt?$AAu?$AAa?$AAl?$AA?5?$AAf?$AAu?$AAn?$AAc?$AAt?$AAi?$AAo?$AAn?$AA?5?$AAc@ 100427d0     LIBCMT:crt0msg.obj
 0002:00001820       ??_C@_1GK@FHCKBEFA@?$AAR?$AA6?$AA0?$AA2?$AA4?$AA?$AN?$AA?6?$AA?9?$AA?5?$AAn?$AAo?$AAt?$AA?5?$AAe?$AAn?$AAo?$AAu?$AAg?$AAh?$AA?5?$AAs?$AAp?$AAa?$AAc?$AAe?$AA?5?$AAf?$AAo?$AAr?$AA?5?$AA_?$AAo@ 10042820     LIBCMT:crt0msg.obj
 0002:00001890       ??_C@_1FC@ECHBIFBC@?$AAR?$AA6?$AA0?$AA1?$AA9?$AA?$AN?$AA?6?$AA?9?$AA?5?$AAu?$AAn?$AAa?$AAb?$AAl?$AAe?$AA?5?$AAt?$AAo?$AA?5?$AAo?$AAp?$AAe?$AAn?$AA?5?$AAc?$AAo?$AAn?$AAs?$AAo?$AAl?$AAe?$AA?5@ 10042890     LIBCMT:crt0msg.obj
 0002:000018e8       ??_C@_1EC@JIBHAOPH@?$AAR?$AA6?$AA0?$AA1?$AA8?$AA?$AN?$AA?6?$AA?9?$AA?5?$AAu?$AAn?$AAe?$AAx?$AAp?$AAe?$AAc?$AAt?$AAe?$AAd?$AA?5?$AAh?$AAe?$AAa?$AAp?$AA?5?$AAe?$AAr?$AAr?$AAo?$AAr?$AA?$AN?$AA?6@ 100428e8     LIBCMT:crt0msg.obj
 0002:00001930       ??_C@_1FK@BEOGODMC@?$AAR?$AA6?$AA0?$AA1?$AA7?$AA?$AN?$AA?6?$AA?9?$AA?5?$AAu?$AAn?$AAe?$AAx?$AAp?$AAe?$AAc?$AAt?$AAe?$AAd?$AA?5?$AAm?$AAu?$AAl?$AAt?$AAi?$AAt?$AAh?$AAr?$AAe?$AAa?$AAd?$AA?5@ 10042930     LIBCMT:crt0msg.obj
 0002:00001990       ??_C@_1FI@LOGNIKDM@?$AAR?$AA6?$AA0?$AA1?$AA6?$AA?$AN?$AA?6?$AA?9?$AA?5?$AAn?$AAo?$AAt?$AA?5?$AAe?$AAn?$AAo?$AAu?$AAg?$AAh?$AA?5?$AAs?$AAp?$AAa?$AAc?$AAe?$AA?5?$AAf?$AAo?$AAr?$AA?5?$AAt?$AAh@ 10042990     LIBCMT:crt0msg.obj
 0002:000019e8       ??_C@_1EG@BEHAGFJD@?$AAR?$AA6?$AA0?$AA1?$AA0?$AA?$AN?$AA?6?$AA?9?$AA?5?$AAa?$AAb?$AAo?$AAr?$AAt?$AA?$CI?$AA?$CJ?$AA?5?$AAh?$AAa?$AAs?$AA?5?$AAb?$AAe?$AAe?$AAn?$AA?5?$AAc?$AAa?$AAl?$AAl?$AAe?$AAd@ 100429e8     LIBCMT:crt0msg.obj
 0002:00001a30       ??_C@_1FI@HONFMGBI@?$AAR?$AA6?$AA0?$AA0?$AA9?$AA?$AN?$AA?6?$AA?9?$AA?5?$AAn?$AAo?$AAt?$AA?5?$AAe?$AAn?$AAo?$AAu?$AAg?$AAh?$AA?5?$AAs?$AAp?$AAa?$AAc?$AAe?$AA?5?$AAf?$AAo?$AAr?$AA?5?$AAe?$AAn@ 10042a30     LIBCMT:crt0msg.obj
 0002:00001a88       ??_C@_1FE@LLNEDJMD@?$AAR?$AA6?$AA0?$AA0?$AA8?$AA?$AN?$AA?6?$AA?9?$AA?5?$AAn?$AAo?$AAt?$AA?5?$AAe?$AAn?$AAo?$AAu?$AAg?$AAh?$AA?5?$AAs?$AAp?$AAa?$AAc?$AAe?$AA?5?$AAf?$AAo?$AAr?$AA?5?$AAa?$AAr@ 10042a88     LIBCMT:crt0msg.obj
 0002:00001ae0       ??_C@_1FK@PGACCAFB@?$AAR?$AA6?$AA0?$AA0?$AA2?$AA?$AN?$AA?6?$AA?9?$AA?5?$AAf?$AAl?$AAo?$AAa?$AAt?$AAi?$AAn?$AAg?$AA?5?$AAp?$AAo?$AAi?$AAn?$AAt?$AA?5?$AAs?$AAu?$AAp?$AAp?$AAo?$AAr?$AAt?$AA?5@ 10042ae0     LIBCMT:crt0msg.obj
 0002:00001bf0       ??_C@_1EK@MBDPDCGA@?$AAM?$AAi?$AAc?$AAr?$AAo?$AAs?$AAo?$AAf?$AAt?$AA?5?$AAV?$AAi?$AAs?$AAu?$AAa?$AAl?$AA?5?$AAC?$AA?$CL?$AA?$CL?$AA?5?$AAR?$AAu?$AAn?$AAt?$AAi?$AAm?$AAe?$AA?5?$AAL?$AAi?$AAb@ 10042bf0     LIBCMT:crt0msg.obj
 0002:00001c3c       ??_C@_15IABLJNFO@?$AA?6?$AA?6?$AA?$AA@ 10042c3c     LIBCMT:crt0msg.obj
 0002:00001c44       ??_C@_17LGKOMLJ@?$AA?4?$AA?4?$AA?4?$AA?$AA@ 10042c44     LIBCMT:crt0msg.obj
 0002:00001c4c       ??_C@_1CO@EAEJAADC@?$AA?$DM?$AAp?$AAr?$AAo?$AAg?$AAr?$AAa?$AAm?$AA?5?$AAn?$AAa?$AAm?$AAe?$AA?5?$AAu?$AAn?$AAk?$AAn?$AAo?$AAw?$AAn?$AA?$DO?$AA?$AA@ 10042c4c     LIBCMT:crt0msg.obj
 0002:00001c7c       ??_C@_1DE@JNGNBFGO@?$AAR?$AAu?$AAn?$AAt?$AAi?$AAm?$AAe?$AA?5?$AAE?$AAr?$AAr?$AAo?$AAr?$AA?$CB?$AA?6?$AA?6?$AAP?$AAr?$AAo?$AAg?$AAr?$AAa?$AAm?$AA?3?$AA?5?$AA?$AA@ 10042c7c     LIBCMT:crt0msg.obj
 0002:00001cb0       ??_C@_0P@MIGLKIOC@CorExitProcess?$AA@ 10042cb0     LIBCMT:crt0dat.obj
 0002:00001cc0       ??_C@_1BI@BGOHAHKC@?$AAm?$AAs?$AAc?$AAo?$AAr?$AAe?$AAe?$AA?4?$AAd?$AAl?$AAl?$AA?$AA@ 10042cc0     LIBCMT:crt0dat.obj
 0002:00001cd8       __XcptActTab               10042cd8     LIBCMT:winxfltr.obj
 0002:00001d68       __First_FPE_Indx           10042d68     LIBCMT:winxfltr.obj
 0002:00001d6c       __Num_FPE                  10042d6c     LIBCMT:winxfltr.obj
 0002:00001d70       __XcptActTabSize           10042d70     LIBCMT:winxfltr.obj
 0002:00001d74       __XcptActTabCount          10042d74     LIBCMT:winxfltr.obj
 0002:000035a0       __indefinite               100445a0     LIBCMT:_87disp_.obj
 0002:000035aa       __piby2                    100445aa     LIBCMT:_87disp_.obj
 0002:000035d8       __DEFAULT_CW_in_mem        100445d8     LIBCMT:_common_.obj
 0002:000035da       __pi_by_2_to_61            100445da     LIBCMT:_common_.obj
 0002:00004e00       __OP_ATAN2jmptab           10045e00     LIBCMT:_87triga_.obj
 0002:00006030       __infinity                 10047030     LIBCMT:_87tran_.obj
 0002:0000603a       __minfinity                1004703a     LIBCMT:_87tran_.obj
 0002:00006044       __logemax                  10047044     LIBCMT:_87tran_.obj
 0002:0000606a       __OP_EXPjmptab             1004706a     LIBCMT:_87tran_.obj
 0002:0000a2d8       ??_C@_03IIINPABG@tan?$AA@  1004b2d8     LIBCMT:_libm_error_.obj
 0002:0000a2dc       ??_C@_03LALBNOCG@cos?$AA@  1004b2dc     LIBCMT:_libm_error_.obj
 0002:0000a2e0       ??_C@_03BLEJJJBH@sin?$AA@  1004b2e0     LIBCMT:_libm_error_.obj
 0002:0000a2e4       ??_C@_04EHEDPDJG@modf?$AA@ 1004b2e4     LIBCMT:_libm_error_.obj
 0002:0000a2ec       ??_C@_05PBJFFIGL@floor?$AA@ 1004b2ec     LIBCMT:_libm_error_.obj
 0002:0000a2f4       ??_C@_04GFPJNGEK@ceil?$AA@ 1004b2f4     LIBCMT:_libm_error_.obj
 0002:0000a2fc       ??_C@_04MLLJIGOK@atan?$AA@ 1004b2fc     LIBCMT:_libm_error_.obj
 0002:0000a304       ??_C@_05EOHGHCHD@exp10?$AA@ 1004b304     LIBCMT:_libm_error_.obj
 0002:0000a30c       ??_C@_04PDIFKINK@acos?$AA@ 1004b30c     LIBCMT:_libm_error_.obj
 0002:0000a314       ??_C@_04FIHNOPOL@asin?$AA@ 1004b314     LIBCMT:_libm_error_.obj
 0002:0000a31c       ??_C@_03MGHMBJCF@log?$AA@  1004b31c     LIBCMT:_libm_error_.obj
 0002:0000a320       ??_C@_05HGHHAHAP@log10?$AA@ 1004b320     LIBCMT:_libm_error_.obj
 0002:0000a328       ??_C@_03KHJOGHMM@exp?$AA@  1004b328     LIBCMT:_libm_error_.obj
 0002:0000a32c       ??_C@_03JGHBODFD@pow?$AA@  1004b32c     LIBCMT:_libm_error_.obj
 0002:0000a330       ??_C@_1BC@GDGBMEMK@?$AAH?$AAH?$AA?3?$AAm?$AAm?$AA?3?$AAs?$AAs?$AA?$AA@ 1004b330     LIBCMT:nlsdata2.obj
 0002:0000a344       ??_C@_1CI@KNAKOEBC@?$AAd?$AAd?$AAd?$AAd?$AA?0?$AA?5?$AAM?$AAM?$AAM?$AAM?$AA?5?$AAd?$AAd?$AA?0?$AA?5?$AAy?$AAy?$AAy?$AAy?$AA?$AA@ 1004b344     LIBCMT:nlsdata2.obj
 0002:0000a36c       ??_C@_1BC@IEBCMHCM@?$AAM?$AAM?$AA?1?$AAd?$AAd?$AA?1?$AAy?$AAy?$AA?$AA@ 1004b36c     LIBCMT:nlsdata2.obj
 0002:0000a380       ??_C@_15CLMNNGEL@?$AAP?$AAM?$AA?$AA@ 1004b380     LIBCMT:nlsdata2.obj
 0002:0000a388       ??_C@_15ODEHAHHF@?$AAA?$AAM?$AA?$AA@ 1004b388     LIBCMT:nlsdata2.obj
 0002:0000a390       ??_C@_1BC@FEMKIFH@?$AAD?$AAe?$AAc?$AAe?$AAm?$AAb?$AAe?$AAr?$AA?$AA@ 1004b390     LIBCMT:nlsdata2.obj
 0002:0000a3a4       ??_C@_1BC@BGLIFPF@?$AAN?$AAo?$AAv?$AAe?$AAm?$AAb?$AAe?$AAr?$AA?$AA@ 1004b3a4     LIBCMT:nlsdata2.obj
 0002:0000a3b8       ??_C@_1BA@EPANDLNG@?$AAO?$AAc?$AAt?$AAo?$AAb?$AAe?$AAr?$AA?$AA@ 1004b3b8     LIBCMT:nlsdata2.obj
 0002:0000a3c8       ??_C@_1BE@DKAAMBJL@?$AAS?$AAe?$AAp?$AAt?$AAe?$AAm?$AAb?$AAe?$AAr?$AA?$AA@ 1004b3c8     LIBCMT:nlsdata2.obj
 0002:0000a3dc       ??_C@_1O@PAHLKOAC@?$AAA?$AAu?$AAg?$AAu?$AAs?$AAt?$AA?$AA@ 1004b3dc     LIBCMT:nlsdata2.obj
 0002:0000a3ec       ??_C@_19BIFMLPCD@?$AAJ?$AAu?$AAl?$AAy?$AA?$AA@ 1004b3ec     LIBCMT:nlsdata2.obj
 0002:0000a3f8       ??_C@_19EPFLPGAP@?$AAJ?$AAu?$AAn?$AAe?$AA?$AA@ 1004b3f8     LIBCMT:nlsdata2.obj
 0002:0000a404       ??_C@_1M@GJNLMHFD@?$AAA?$AAp?$AAr?$AAi?$AAl?$AA?$AA@ 1004b404     LIBCMT:nlsdata2.obj
 0002:0000a410       ??_C@_1M@IKEENEDF@?$AAM?$AAa?$AAr?$AAc?$AAh?$AA?$AA@ 1004b410     LIBCMT:nlsdata2.obj
 0002:0000a41c       ??_C@_1BC@JGDDFFAM@?$AAF?$AAe?$AAb?$AAr?$AAu?$AAa?$AAr?$AAy?$AA?$AA@ 1004b41c     LIBCMT:nlsdata2.obj
 0002:0000a430       ??_C@_1BA@EFMEIEBA@?$AAJ?$AAa?$AAn?$AAu?$AAa?$AAr?$AAy?$AA?$AA@ 1004b430     LIBCMT:nlsdata2.obj
 0002:0000a440       ??_C@_17EGKACKIF@?$AAD?$AAe?$AAc?$AA?$AA@ 1004b440     LIBCMT:nlsdata2.obj
 0002:0000a448       ??_C@_17BBDMLCIG@?$AAN?$AAo?$AAv?$AA?$AA@ 1004b448     LIBCMT:nlsdata2.obj
 0002:0000a450       ??_C@_17FNLKOI@?$AAO?$AAc?$AAt?$AA?$AA@ 1004b450     LIBCMT:nlsdata2.obj
 0002:0000a458       ??_C@_17HCHCOKMG@?$AAS?$AAe?$AAp?$AA?$AA@ 1004b458     LIBCMT:nlsdata2.obj
 0002:0000a460       ??_C@_17ICPELBCN@?$AAA?$AAu?$AAg?$AA?$AA@ 1004b460     LIBCMT:nlsdata2.obj
 0002:0000a468       ??_C@_17IJPCKHK@?$AAJ?$AAu?$AAl?$AA?$AA@ 1004b468     LIBCMT:nlsdata2.obj
 0002:0000a470       ??_C@_17KCJGOCPB@?$AAJ?$AAu?$AAn?$AA?$AA@ 1004b470     LIBCMT:nlsdata2.obj
 0002:0000a478       ??_C@_17PNNKMEED@?$AAM?$AAa?$AAy?$AA?$AA@ 1004b478     LIBCMT:nlsdata2.obj
 0002:0000a480       ??_C@_17LFPOIHDD@?$AAA?$AAp?$AAr?$AA?$AA@ 1004b480     LIBCMT:nlsdata2.obj
 0002:0000a488       ??_C@_17CKNLEDEC@?$AAM?$AAa?$AAr?$AA?$AA@ 1004b488     LIBCMT:nlsdata2.obj
 0002:0000a490       ??_C@_17LMDJEKJN@?$AAF?$AAe?$AAb?$AA?$AA@ 1004b490     LIBCMT:nlsdata2.obj
 0002:0000a498       ??_C@_17DKNBKCHM@?$AAJ?$AAa?$AAn?$AA?$AA@ 1004b498     LIBCMT:nlsdata2.obj
 0002:0000a4a0       ??_C@_1BC@ENMNNPAJ@?$AAS?$AAa?$AAt?$AAu?$AAr?$AAd?$AAa?$AAy?$AA?$AA@ 1004b4a0     LIBCMT:nlsdata2.obj
 0002:0000a4b4       ??_C@_1O@PDICJHAG@?$AAF?$AAr?$AAi?$AAd?$AAa?$AAy?$AA?$AA@ 1004b4b4     LIBCMT:nlsdata2.obj
 0002:0000a4c4       ??_C@_1BC@HHMNLIHE@?$AAT?$AAh?$AAu?$AAr?$AAs?$AAd?$AAa?$AAy?$AA?$AA@ 1004b4c4     LIBCMT:nlsdata2.obj
 0002:0000a4d8       ??_C@_1BE@EBOGMDOH@?$AAW?$AAe?$AAd?$AAn?$AAe?$AAs?$AAd?$AAa?$AAy?$AA?$AA@ 1004b4d8     LIBCMT:nlsdata2.obj
 0002:0000a4ec       ??_C@_1BA@ENFBFFEK@?$AAT?$AAu?$AAe?$AAs?$AAd?$AAa?$AAy?$AA?$AA@ 1004b4ec     LIBCMT:nlsdata2.obj
 0002:0000a4fc       ??_C@_1O@MMNBFLIA@?$AAM?$AAo?$AAn?$AAd?$AAa?$AAy?$AA?$AA@ 1004b4fc     LIBCMT:nlsdata2.obj
 0002:0000a50c       ??_C@_1O@IHNHDHPB@?$AAS?$AAu?$AAn?$AAd?$AAa?$AAy?$AA?$AA@ 1004b50c     LIBCMT:nlsdata2.obj
 0002:0000a51c       ??_C@_17GGIBDPIH@?$AAS?$AAa?$AAt?$AA?$AA@ 1004b51c     LIBCMT:nlsdata2.obj
 0002:0000a524       ??_C@_17HFOLPPLP@?$AAF?$AAr?$AAi?$AA?$AA@ 1004b524     LIBCMT:nlsdata2.obj
 0002:0000a52c       ??_C@_17PDPHAADD@?$AAT?$AAh?$AAu?$AA?$AA@ 1004b52c     LIBCMT:nlsdata2.obj
 0002:0000a534       ??_C@_17CJEDCEPE@?$AAW?$AAe?$AAd?$AA?$AA@ 1004b534     LIBCMT:nlsdata2.obj
 0002:0000a53c       ??_C@_17BMKGEGOJ@?$AAT?$AAu?$AAe?$AA?$AA@ 1004b53c     LIBCMT:nlsdata2.obj
 0002:0000a544       ??_C@_17KBOMKBF@?$AAM?$AAo?$AAn?$AA?$AA@ 1004b544     LIBCMT:nlsdata2.obj
 0002:0000a54c       ??_C@_17MBGCMIPB@?$AAS?$AAu?$AAn?$AA?$AA@ 1004b54c     LIBCMT:nlsdata2.obj
 0002:0000a554       ??_C@_08JCCMCCIL@HH?3mm?3ss?$AA@ 1004b554     LIBCMT:nlsdata2.obj
 0002:0000a560       ??_C@_0BE@CKGJFCPC@dddd?0?5MMMM?5dd?0?5yyyy?$AA@ 1004b560     LIBCMT:nlsdata2.obj
 0002:0000a574       ??_C@_08BPBNCDIB@MM?1dd?1yy?$AA@ 1004b574     LIBCMT:nlsdata2.obj
 0002:0000a580       ??_C@_02CJNFDJBF@PM?$AA@   1004b580     LIBCMT:nlsdata2.obj
 0002:0000a584       ??_C@_02DEDBPAFC@AM?$AA@   1004b584     LIBCMT:nlsdata2.obj
 0002:0000a588       ??_C@_08EDHMEBNP@December?$AA@ 1004b588     LIBCMT:nlsdata2.obj
 0002:0000a594       ??_C@_08HCHEGEOA@November?$AA@ 1004b594     LIBCMT:nlsdata2.obj
 0002:0000a5a0       ??_C@_07JJNFCEND@October?$AA@ 1004b5a0     LIBCMT:nlsdata2.obj
 0002:0000a5a8       ??_C@_09BHHEALKD@September?$AA@ 1004b5a8     LIBCMT:nlsdata2.obj
 0002:0000a5b4       ??_C@_06LBBHFDDG@August?$AA@ 1004b5b4     LIBCMT:nlsdata2.obj
 0002:0000a5bc       ??_C@_04MIEPOIFP@July?$AA@ 1004b5bc     LIBCMT:nlsdata2.obj
 0002:0000a5c4       ??_C@_04CNLMGBGM@June?$AA@ 1004b5c4     LIBCMT:nlsdata2.obj
 0002:0000a5cc       ??_C@_05DMJDNLEJ@April?$AA@ 1004b5cc     LIBCMT:nlsdata2.obj
 0002:0000a5d4       ??_C@_05HPCKOFNC@March?$AA@ 1004b5d4     LIBCMT:nlsdata2.obj
 0002:0000a5dc       ??_C@_08GNJGEPFN@February?$AA@ 1004b5dc     LIBCMT:nlsdata2.obj
 0002:0000a5e8       ??_C@_07CGJPFGJA@January?$AA@ 1004b5e8     LIBCMT:nlsdata2.obj
 0002:0000a5f0       ??_C@_03MKABNOCG@Dec?$AA@  1004b5f0     LIBCMT:nlsdata2.obj
 0002:0000a5f4       ??_C@_03JPJOFNIA@Nov?$AA@  1004b5f4     LIBCMT:nlsdata2.obj
 0002:0000a5f8       ??_C@_03BMAOKBAD@Oct?$AA@  1004b5f8     LIBCMT:nlsdata2.obj
 0002:0000a5fc       ??_C@_03GGCAPAJC@Sep?$AA@  1004b5fc     LIBCMT:nlsdata2.obj
 0002:0000a600       ??_C@_03IFJFEIGA@Aug?$AA@  1004b600     LIBCMT:nlsdata2.obj
 0002:0000a604       ??_C@_03LBGABGKK@Jul?$AA@  1004b604     LIBCMT:nlsdata2.obj
 0002:0000a608       ??_C@_03IDFGHECI@Jun?$AA@  1004b608     LIBCMT:nlsdata2.obj
 0002:0000a60c       ??_C@_03CNMDKL@May?$AA@    1004b60c     LIBCMT:nlsdata2.obj
 0002:0000a610       ??_C@_03LEOLGMJP@Apr?$AA@  1004b610     LIBCMT:nlsdata2.obj
 0002:0000a614       ??_C@_03ODNJBKGA@Mar?$AA@  1004b614     LIBCMT:nlsdata2.obj
 0002:0000a618       ??_C@_03HJBDCHOM@Feb?$AA@  1004b618     LIBCMT:nlsdata2.obj
 0002:0000a61c       ??_C@_03JIHJHPIE@Jan?$AA@  1004b61c     LIBCMT:nlsdata2.obj
 0002:0000a620       ??_C@_08INBOOONO@Saturday?$AA@ 1004b620     LIBCMT:nlsdata2.obj
 0002:0000a62c       ??_C@_06JECMNKMI@Friday?$AA@ 1004b62c     LIBCMT:nlsdata2.obj
 0002:0000a634       ??_C@_08HACCIKIA@Thursday?$AA@ 1004b634     LIBCMT:nlsdata2.obj
 0002:0000a640       ??_C@_09DLIGFAKA@Wednesday?$AA@ 1004b640     LIBCMT:nlsdata2.obj
 0002:0000a64c       ??_C@_07BAAGCFCM@Tuesday?$AA@ 1004b64c     LIBCMT:nlsdata2.obj
 0002:0000a654       ??_C@_06JLEDEDGH@Monday?$AA@ 1004b654     LIBCMT:nlsdata2.obj
 0002:0000a65c       ??_C@_06OOPIFAJ@Sunday?$AA@ 1004b65c     LIBCMT:nlsdata2.obj
 0002:0000a664       ??_C@_03FEFJNEK@Sat?$AA@   1004b664     LIBCMT:nlsdata2.obj
 0002:0000a668       ??_C@_03IDIOELNC@Fri?$AA@  1004b668     LIBCMT:nlsdata2.obj
 0002:0000a66c       ??_C@_03IOFIKPDN@Thu?$AA@  1004b66c     LIBCMT:nlsdata2.obj
 0002:0000a670       ??_C@_03MHOMLAJA@Wed?$AA@  1004b670     LIBCMT:nlsdata2.obj
 0002:0000a674       ??_C@_03NAGEINEP@Tue?$AA@  1004b674     LIBCMT:nlsdata2.obj
 0002:0000a678       ??_C@_03PDAGKDH@Mon?$AA@   1004b678     LIBCMT:nlsdata2.obj
 0002:0000a67c       ??_C@_03KOEHGMDN@Sun?$AA@  1004b67c     LIBCMT:nlsdata2.obj
 0002:0000a680       ??_C@_07LCBHPJJN@LC_TIME?$AA@ 1004b680     LIBCMT:setlocal.obj
 0002:0000a688       ??_C@_0L@DLHIECNL@LC_NUMERIC?$AA@ 1004b688     LIBCMT:setlocal.obj
 0002:0000a694       ??_C@_0M@MIENIKLA@LC_MONETARY?$AA@ 1004b694     LIBCMT:setlocal.obj
 0002:0000a6a0       ??_C@_08EADHIDAD@LC_CTYPE?$AA@ 1004b6a0     LIBCMT:setlocal.obj
 0002:0000a6ac       ??_C@_0L@KFJHEKIK@LC_COLLATE?$AA@ 1004b6ac     LIBCMT:setlocal.obj
 0002:0000a6b8       ??_C@_06NEFDFEKB@LC_ALL?$AA@ 1004b6b8     LIBCMT:setlocal.obj
 0002:0000a6c0       ___lc_category             1004b6c0     LIBCMT:setlocal.obj
 0002:0000a788       ??_C@_03EGDHDPFD@_?4?0?$AA@ 1004b788     LIBCMT:setlocal.obj
 0002:0000a78c       ??_C@_01IDAFKMJL@_?$AA@    1004b78c     LIBCMT:setlocal.obj
 0002:0000a790       ??_C@_01ICJEACDI@?$DL?$AA@ 1004b790     LIBCMT:setlocal.obj
 0002:0000a794       ??_C@_01NEMOKFLO@?$DN?$AA@ 1004b794     LIBCMT:setlocal.obj
 0002:0000a798       ??_C@_01GFHCPBMG@C?$AA@    1004b798     LIBCMT:setlocal.obj
 0002:0000a79c       ??_C@_02BALPLPBG@?$DN?$DL?$AA@ 1004b79c     LIBCMT:setlocal.obj
 0002:0000a7a4       ??_7exception@std@@6B@     1004b7a4     LIBCMT:stdexcpt.obj
 0002:0000a7ac       ??_C@_0BC@EOODALEL@Unknown?5exception?$AA@ 1004b7ac     LIBCMT:stdexcpt.obj
 0002:0000a7c4       ??_7bad_cast@std@@6B@      1004b7c4     LIBCMT:stdexcpt.obj
 0002:0000a7d0       ??_7bad_typeid@std@@6B@    1004b7d0     LIBCMT:stdexcpt.obj
 0002:0000a7dc       ??_7__non_rtti_object@std@@6B@ 1004b7dc     LIBCMT:stdexcpt.obj
 0002:0000a804       ??_C@_0BK@CFCOFLF@?5Complete?5Object?5Locator?8?$AA@ 1004b804     LIBCMT:undname.obj
 0002:0000a820       ??_C@_0BN@MECKDCOJ@?5Class?5Hierarchy?5Descriptor?8?$AA@ 1004b820     LIBCMT:undname.obj
 0002:0000a840       ??_C@_0BD@LGICGFMM@?5Base?5Class?5Array?8?$AA@ 1004b840     LIBCMT:undname.obj
 0002:0000a854       ??_C@_0BM@LDKODKLH@?5Base?5Class?5Descriptor?5at?5?$CI?$AA@ 1004b854     LIBCMT:undname.obj
 0002:0000a870       ??_C@_0BC@DAFEJGAK@?5Type?5Descriptor?8?$AA@ 1004b870     LIBCMT:undname.obj
 0002:0000a884       ??_C@_0BM@PMGGMLDN@?$GAlocal?5static?5thread?5guard?8?$AA@ 1004b884     LIBCMT:undname.obj
 0002:0000a8a0       ??_C@_0CL@FGIJHLCE@?$GAmanaged?5vector?5copy?5constructor@ 1004b8a0     LIBCMT:undname.obj
 0002:0000a8cc       ??_C@_0CJ@GJELGAMM@?$GAvector?5vbase?5copy?5constructor?5i@ 1004b8cc     LIBCMT:undname.obj
 0002:0000a8f8       ??_C@_0CD@CGAJBKEJ@?$GAvector?5copy?5constructor?5iterato@ 1004b8f8     LIBCMT:undname.obj
 0002:0000a91c       ??_C@_0CB@PDBIFEP@?$GAdynamic?5atexit?5destructor?5for?5?8@ 1004b91c     LIBCMT:undname.obj
 0002:0000a940       ??_C@_0BL@CLIPGLGB@?$GAdynamic?5initializer?5for?5?8?$AA@ 1004b940     LIBCMT:undname.obj
 0002:0000a95c       ??_C@_0CM@FCBBDIGB@?$GAeh?5vector?5vbase?5copy?5constructo@ 1004b95c     LIBCMT:undname.obj
 0002:0000a988       ??_C@_0CG@HLDDJMAG@?$GAeh?5vector?5copy?5constructor?5iter@ 1004b988     LIBCMT:undname.obj
 0002:0000a9b0       ??_C@_0CF@IMGKMJNO@?$GAmanaged?5vector?5destructor?5itera@ 1004b9b0     LIBCMT:undname.obj
 0002:0000a9d8       ??_C@_0CG@CFDHKGGD@?$GAmanaged?5vector?5constructor?5iter@ 1004b9d8     LIBCMT:undname.obj
 0002:0000aa00       ??_C@_0BN@CKNJLHMB@?$GAplacement?5delete?$FL?$FN?5closure?8?$AA@ 1004ba00     LIBCMT:undname.obj
 0002:0000aa20       ??_C@_0BL@CNOONJFP@?$GAplacement?5delete?5closure?8?$AA@ 1004ba20     LIBCMT:undname.obj
 0002:0000aa3c       ??_C@_0P@HJKNJFNN@?$GAomni?5callsig?8?$AA@ 1004ba3c     LIBCMT:undname.obj
 0002:0000aa4c       ??_C@_09LBNFPBCA@?5delete?$FL?$FN?$AA@ 1004ba4c     LIBCMT:undname.obj
 0002:0000aa58       ??_C@_06FHBGPFGH@?5new?$FL?$FN?$AA@ 1004ba58     LIBCMT:undname.obj
 0002:0000aa60       ??_C@_0CE@IIHCMGGL@?$GAlocal?5vftable?5constructor?5closu@ 1004ba60     LIBCMT:undname.obj
 0002:0000aa84       ??_C@_0BA@KKLDJDLB@?$GAlocal?5vftable?8?$AA@ 1004ba84     LIBCMT:undname.obj
 0002:0000aa94       ??_C@_05KHLCHHI@?$GARTTI?$AA@ 1004ba94     LIBCMT:undname.obj
 0002:0000aa9c       ??_C@_03KLGMFNMG@?$GAEH?$AA@ 1004ba9c     LIBCMT:undname.obj
 0002:0000aaa0       ??_C@_0BA@KBCDOMBN@?$GAudt?5returning?8?$AA@ 1004baa0     LIBCMT:undname.obj
 0002:0000aab0       ??_C@_0BL@LLKPOHJI@?$GAcopy?5constructor?5closure?8?$AA@ 1004bab0     LIBCMT:undname.obj
 0002:0000aacc       ??_C@_0CH@OOJPLCPH@?$GAeh?5vector?5vbase?5constructor?5ite@ 1004bacc     LIBCMT:undname.obj
 0002:0000aaf4       ??_C@_0CA@GCEOPDGL@?$GAeh?5vector?5destructor?5iterator?8?$AA@ 1004baf4     LIBCMT:undname.obj
 0002:0000ab14       ??_C@_0CB@JONCMFFK@?$GAeh?5vector?5constructor?5iterator?8@ 1004bb14     LIBCMT:undname.obj
 0002:0000ab38       ??_C@_0BL@NILFHHPC@?$GAvirtual?5displacement?5map?8?$AA@ 1004bb38     LIBCMT:undname.obj
 0002:0000ab54       ??_C@_0CE@IKBNEHA@?$GAvector?5vbase?5constructor?5iterat@ 1004bb54     LIBCMT:undname.obj
 0002:0000ab78       ??_C@_0BN@LFPFMEDL@?$GAvector?5destructor?5iterator?8?$AA@ 1004bb78     LIBCMT:undname.obj
 0002:0000ab98       ??_C@_0BO@PFGOCPJJ@?$GAvector?5constructor?5iterator?8?$AA@ 1004bb98     LIBCMT:undname.obj
 0002:0000abb8       ??_C@_0BN@IMDCHIKM@?$GAscalar?5deleting?5destructor?8?$AA@ 1004bbb8     LIBCMT:undname.obj
 0002:0000abd8       ??_C@_0BO@OBMKPJIG@?$GAdefault?5constructor?5closure?8?$AA@ 1004bbd8     LIBCMT:undname.obj
 0002:0000abf8       ??_C@_0BN@DEGPLNFK@?$GAvector?5deleting?5destructor?8?$AA@ 1004bbf8     LIBCMT:undname.obj
 0002:0000ac18       ??_C@_0BD@JDLKDPAB@?$GAvbase?5destructor?8?$AA@ 1004bc18     LIBCMT:undname.obj
 0002:0000ac2c       ??_C@_08OBABFOLI@?$GAstring?8?$AA@ 1004bc2c     LIBCMT:undname.obj
 0002:0000ac38       ??_C@_0BF@KDPPACIK@?$GAlocal?5static?5guard?8?$AA@ 1004bc38     LIBCMT:undname.obj
 0002:0000ac50       ??_C@_08LLFFHHDJ@?$GAtypeof?8?$AA@ 1004bc50     LIBCMT:undname.obj
 0002:0000ac5c       ??_C@_07FEEIOKP@?$GAvcall?8?$AA@ 1004bc5c     LIBCMT:undname.obj
 0002:0000ac64       ??_C@_09BLBHBJP@?$GAvbtable?8?$AA@ 1004bc64     LIBCMT:undname.obj
 0002:0000ac70       ??_C@_09IFPLHPGF@?$GAvftable?8?$AA@ 1004bc70     LIBCMT:undname.obj
 0002:0000ac7c       ??_C@_02MHEGNOJ@?$FO?$DN?$AA@ 1004bc7c     LIBCMT:undname.obj
 0002:0000ac80       ??_C@_02DHLNPPGH@?$HM?$DN?$AA@ 1004bc80     LIBCMT:undname.obj
 0002:0000ac84       ??_C@_02FGJGFEAB@?$CG?$DN?$AA@ 1004bc84     LIBCMT:undname.obj
 0002:0000ac88       ??_C@_03CDNPDDLA@?$DM?$DM?$DN?$AA@ 1004bc88     LIBCMT:undname.obj
 0002:0000ac8c       ??_C@_03IKFCCPFF@?$DO?$DO?$DN?$AA@ 1004bc8c     LIBCMT:undname.obj
 0002:0000ac90       ??_C@_02FENAOKFI@?$CF?$DN?$AA@ 1004bc90     LIBCMT:undname.obj
 0002:0000ac94       ??_C@_02FJEHGPIO@?1?$DN?$AA@ 1004bc94     LIBCMT:undname.obj
 0002:0000ac98       ??_C@_02FKMDLLOA@?9?$DN?$AA@ 1004bc98     LIBCMT:undname.obj
 0002:0000ac9c       ??_C@_02FOEOMHFC@?$CL?$DN?$AA@ 1004bc9c     LIBCMT:undname.obj
 0002:0000aca0       ??_C@_02FPIMKNGF@?$CK?$DN?$AA@ 1004bca0     LIBCMT:undname.obj
 0002:0000aca4       ??_C@_02NONPIBCD@?$HM?$HM?$AA@ 1004bca4     LIBCMT:undname.obj
 0002:0000aca8       ??_C@_02PPKAJPJL@?$CG?$CG?$AA@ 1004bca8     LIBCMT:undname.obj
 0002:0000acac       ??_C@_01DNKMNLPK@?$HM?$AA@ 1004bcac     LIBCMT:undname.obj
 0002:0000acb0       ??_C@_01JKBOJNNK@?$FO?$AA@ 1004bcb0     LIBCMT:undname.obj
 0002:0000acb4       ??_C@_01PJKLJHI@?$HO?$AA@  1004bcb4     LIBCMT:undname.obj
 0002:0000acb8       ??_C@_02HCKGKOFO@?$CI?$CJ?$AA@ 1004bcb8     LIBCMT:undname.obj
 0002:0000acbc       ??_C@_01IHBHIGKO@?0?$AA@   1004bcbc     LIBCMT:undname.obj
 0002:0000acc0       ??_C@_02EEKDKGMJ@?$DO?$DN?$AA@ 1004bcc0     LIBCMT:undname.obj
 0002:0000acc4       ??_C@_01PPODPGHN@?$DO?$AA@ 1004bcc4     LIBCMT:undname.obj
 0002:0000acc8       ??_C@_02EHCHHCKH@?$DM?$DN?$AA@ 1004bcc8     LIBCMT:undname.obj
 0002:0000accc       ??_C@_01MNNFJEPP@?$DM?$AA@ 1004bccc     LIBCMT:undname.obj
 0002:0000acd0       ??_C@_01FGNFDNOH@?$CF?$AA@ 1004bcd0     LIBCMT:undname.obj
 0002:0000acd4       ??_C@_01KMDKNFGN@?1?$AA@   1004bcd4     LIBCMT:undname.obj
 0002:0000acd8       ??_C@_03MNHNFDLC@?9?$DO?$CK?$AA@ 1004bcd8     LIBCMT:undname.obj
 0002:0000acdc       ??_C@_01HNPIGOCE@?$CG?$AA@ 1004bcdc     LIBCMT:undname.obj
 0002:0000ace0       ??_C@_01MIFGBAGJ@?$CL?$AA@ 1004bce0     LIBCMT:undname.obj
 0002:0000ace4       ??_C@_02BAABKJLB@?9?9?$AA@ 1004bce4     LIBCMT:undname.obj
 0002:0000ace8       ??_C@_02ECNGHCIF@?$CL?$CL?$AA@ 1004bce8     LIBCMT:undname.obj
 0002:0000acec       ??_C@_01NBENCBCI@?$CK?$AA@ 1004bcec     LIBCMT:undname.obj
 0002:0000acf0       ??_C@_02HBOOOICD@?9?$DO?$AA@ 1004bcf0     LIBCMT:undname.obj
 0002:0000acf4       ??_C@_08LHJFAFGD@operator?$AA@ 1004bcf4     LIBCMT:undname.obj
 0002:0000ad00       ??_C@_02GPECMEKF@?$FL?$FN?$AA@ 1004bd00     LIBCMT:undname.obj
 0002:0000ad04       ??_C@_02FDNJECIE@?$CB?$DN?$AA@ 1004bd04     LIBCMT:undname.obj
 0002:0000ad08       ??_C@_02EGOFBIJA@?$DN?$DN?$AA@ 1004bd08     LIBCMT:undname.obj
 0002:0000ad0c       ??_C@_01DCLJPIOD@?$CB?$AA@ 1004bd0c     LIBCMT:undname.obj
 0002:0000ad10       ??_C@_02FODMEDOG@?$DM?$DM?$AA@ 1004bd10     LIBCMT:undname.obj
 0002:0000ad14       ??_C@_02GPIOPFAK@?$DO?$DO?$AA@ 1004bd14     LIBCMT:undname.obj
 0002:0000ad18       ??_C@_07FPCDHGMM@?5delete?$AA@ 1004bd18     LIBCMT:undname.obj
 0002:0000ad20       ??_C@_04NIHEBCM@?5new?$AA@ 1004bd20     LIBCMT:undname.obj
 0002:0000ad28       ??_C@_0M@GFIIJFMG@__unaligned?$AA@ 1004bd28     LIBCMT:undname.obj
 0002:0000ad34       ??_C@_0L@PILCLIHE@__restrict?$AA@ 1004bd34     LIBCMT:undname.obj
 0002:0000ad40       ??_C@_07JOMMBBKO@__ptr64?$AA@ 1004bd40     LIBCMT:undname.obj
 0002:0000ad48       ??_C@_06GHPCKEAG@__eabi?$AA@ 1004bd48     LIBCMT:undname.obj
 0002:0000ad50       ??_C@_09HIJEGCPM@__clrcall?$AA@ 1004bd50     LIBCMT:undname.obj
 0002:0000ad5c       ??_C@_0L@JMKHOMEK@__fastcall?$AA@ 1004bd5c     LIBCMT:undname.obj
 0002:0000ad68       ??_C@_0L@NPHFGOKO@__thiscall?$AA@ 1004bd68     LIBCMT:undname.obj
 0002:0000ad74       ??_C@_09IFJBGAPI@__stdcall?$AA@ 1004bd74     LIBCMT:undname.obj
 0002:0000ad80       ??_C@_08GHMPAG@__pascal?$AA@ 1004bd80     LIBCMT:undname.obj
 0002:0000ad8c       ??_C@_07KOLFKCDI@__cdecl?$AA@ 1004bd8c     LIBCMT:undname.obj
 0002:0000ad94       ??_C@_08EHJDFFNH@__based?$CI?$AA@ 1004bd94     LIBCMT:undname.obj
 0002:0000af24       ??_7DNameNode@@6B@         1004bf24     LIBCMT:undname.obj
 0002:0000af30       ??_7charNode@@6B@          1004bf30     LIBCMT:undname.obj
 0002:0000af3c       ??_7pDNameNode@@6B@        1004bf3c     LIBCMT:undname.obj
 0002:0000af48       ??_7DNameStatusNode@@6B@   1004bf48     LIBCMT:undname.obj
 0002:0000af54       ??_7pairNode@@6B@          1004bf54     LIBCMT:undname.obj
 0002:0000af60       ??_7pcharNode@@6B@         1004bf60     LIBCMT:undname.obj
 0002:0000af6c       ??_C@_04OKOHEJBO@?5?$DP?$DP?5?$AA@ 1004bf6c     LIBCMT:undname.obj
 0002:0000af74       ??_C@_06EEGAIFAK@?$HLflat?$HN?$AA@ 1004bf74     LIBCMT:undname.obj
 0002:0000af7c       ??_C@_05JIBOFOHK@?$HLfor?5?$AA@ 1004bf7c     LIBCMT:undname.obj
 0002:0000af84       ??_C@_0BN@IBLMMFAP@?$GAnon?9type?9template?9parameter?$AA@ 1004bf84     LIBCMT:undname.obj
 0002:0000afa4       ??_C@_09EBBEKKIH@unsigned?5?$AA@ 1004bfa4     LIBCMT:undname.obj
 0002:0000afb0       ??_C@_05CJIMAING@long?5?$AA@ 1004bfb0     LIBCMT:undname.obj
 0002:0000afb8       ??_C@_04LAHKHJMA@int?5?$AA@ 1004bfb8     LIBCMT:undname.obj
 0002:0000afc0       ??_C@_06EHJMALKF@short?5?$AA@ 1004bfc0     LIBCMT:undname.obj
 0002:0000afc8       ??_C@_05CIHEBHNO@char?5?$AA@ 1004bfc8     LIBCMT:undname.obj
 0002:0000afd0       ??_C@_04GKJNKENE@void?$AA@ 1004bfd0     LIBCMT:undname.obj
 0002:0000afd8       ??_C@_0L@EGPHHEKN@?$DMellipsis?$DO?$AA@ 1004bfd8     LIBCMT:undname.obj
 0002:0000afe4       ??_C@_03KHICJKCI@?4?4?4?$AA@ 1004bfe4     LIBCMT:undname.obj
 0002:0000afe8       ??_C@_0M@ELJOJFFH@?0?$DMellipsis?$DO?$AA@ 1004bfe8     LIBCMT:undname.obj
 0002:0000aff4       ??_C@_04EENFHACM@?0?4?4?4?$AA@ 1004bff4     LIBCMT:undname.obj
 0002:0000affc       ??_C@_07HDJPLPEK@?5throw?$CI?$AA@ 1004bffc     LIBCMT:undname.obj
 0002:0000b004       ??_C@_02GOGNNPBN@?$CJ?$FL?$AA@ 1004c004     LIBCMT:undname.obj
 0002:0000b008       ??_C@_02MDINNEEG@s?5?$AA@  1004c008     LIBCMT:undname.obj
 0002:0000b00c       ??_C@_0BE@EODMJLIF@?$GAtemplate?9parameter?$AA@ 1004c00c     LIBCMT:undname.obj
 0002:0000b020       ??_C@_0O@GKABPPIF@cli?3?3pin_ptr?$DM?$AA@ 1004c020     LIBCMT:undname.obj
 0002:0000b030       ??_C@_0M@EALIELKG@cli?3?3array?$DM?$AA@ 1004c030     LIBCMT:undname.obj
 0002:0000b03c       ??_C@_05BEFAKPML@void?5?$AA@ 1004c03c     LIBCMT:undname.obj
 0002:0000b044       ??_C@_02OHHJMEON@?8?8?$AA@ 1004c044     LIBCMT:undname.obj
 0002:0000b048       ??_C@_0BG@JNJLAMPM@?$GAanonymous?5namespace?8?$AA@ 1004c048     LIBCMT:undname.obj
 0002:0000b060       ??_C@_01NLNLIGKH@?$GA?$AA@ 1004c060     LIBCMT:undname.obj
 0002:0000b064       ??_C@_0O@KHGCOMHP@generic?9type?9?$AA@ 1004c064     LIBCMT:undname.obj
 0002:0000b074       ??_C@_0BE@JAEOCHPE@template?9parameter?9?$AA@ 1004c074     LIBCMT:undname.obj
 0002:0000b088       ??_C@_02MOLJINC@?3?3?$AA@  1004c088     LIBCMT:undname.obj
 0002:0000b08c       ??_C@_0P@GCIFDJCJ@?$GAunknown?5ecsu?8?$AA@ 1004c08c     LIBCMT:undname.obj
 0002:0000b09c       ??_C@_06MOJHIBMG@union?5?$AA@ 1004c09c     LIBCMT:undname.obj
 0002:0000b0a4       ??_C@_07DIBCDNGL@struct?5?$AA@ 1004c0a4     LIBCMT:undname.obj
 0002:0000b0ac       ??_C@_06LJBABKPM@class?5?$AA@ 1004c0ac     LIBCMT:undname.obj
 0002:0000b0b4       ??_C@_05LJGMCFOG@enum?5?$AA@ 1004c0b4     LIBCMT:undname.obj
 0002:0000b0bc       ??_C@_08KOFANOFK@coclass?5?$AA@ 1004c0bc     LIBCMT:undname.obj
 0002:0000b0c8       ??_C@_0N@DLIEFKNA@cointerface?5?$AA@ 1004c0c8     LIBCMT:undname.obj
 0002:0000b0d8       ??_C@_02KCKGHPCA@?$CJ?5?$AA@ 1004c0d8     LIBCMT:undname.obj
 0002:0000b0dc       ??_C@_0M@DHNBOJMP@extern?5?$CCC?$CC?5?$AA@ 1004c0dc     LIBCMT:undname.obj
 0002:0000b0e8       ??_C@_08KJLFOPNE@?$FLthunk?$FN?3?$AA@ 1004c0e8     LIBCMT:undname.obj
 0002:0000b0f4       ??_C@_08GPDDCMKI@public?3?5?$AA@ 1004c0f4     LIBCMT:undname.obj
 0002:0000b100       ??_C@_0M@GAIFPFIP@protected?3?5?$AA@ 1004c100     LIBCMT:undname.obj
 0002:0000b10c       ??_C@_09LAPHOOG@private?3?5?$AA@ 1004c10c     LIBCMT:undname.obj
 0002:0000b118       ??_C@_08NIEOINHE@virtual?5?$AA@ 1004c118     LIBCMT:undname.obj
 0002:0000b124       ??_C@_07PGOEDBHP@static?5?$AA@ 1004c124     LIBCMT:undname.obj
 0002:0000b12c       ??_C@_0DA@HGFJFBBE@?$GAtemplate?5static?5data?5member?5des@ 1004c12c     LIBCMT:undname.obj
 0002:0000b15c       ??_C@_0DB@ILEFOCIJ@?$GAtemplate?5static?5data?5member?5con@ 1004c15c     LIBCMT:undname.obj
 0002:0000b190       ??_C@_0CB@KJDOOODE@?$GAlocal?5static?5destructor?5helper?8@ 1004c190     LIBCMT:undname.obj
 0002:0000b1b4       ??_C@_0L@HNGCOGAE@?$GAadjustor?$HL?$AA@ 1004c1b4     LIBCMT:undname.obj
 0002:0000b1c0       ??_C@_0L@GHPFDFH@?$GAvtordisp?$HL?$AA@ 1004c1c0     LIBCMT:undname.obj
 0002:0000b1cc       ??_C@_0N@CBHHHENL@?$GAvtordispex?$HL?$AA@ 1004c1cc     LIBCMT:undname.obj
 0002:0000b1dc       ??_C@_02IGFCGPIL@?$HN?8?$AA@ 1004c1dc     LIBCMT:undname.obj
 0002:0000b1e0       ??_C@_03OPGICMGF@?$HN?8?5?$AA@ 1004c1e0     LIBCMT:undname.obj
 0002:0000b1e4       ??_C@_06LIJLOJAG@const?5?$AA@ 1004c1e4     LIBCMT:undname.obj
 0002:0000b1ec       ??_C@_09GAIEOBLP@volatile?5?$AA@ 1004c1ec     LIBCMT:undname.obj
 0002:0000b1f8       ??_C@_04HEJADOOB@CV?3?5?$AA@ 1004c1f8     LIBCMT:undname.obj
 0002:0000b200       ??_C@_08PABEKFH@volatile?$AA@ 1004c200     LIBCMT:undname.obj
 0002:0000b20c       ??_C@_09EFNPDFFP@?5volatile?$AA@ 1004c20c     LIBCMT:undname.obj
 0002:0000b218       ??_C@_05BNCCCJPP@const?$AA@ 1004c218     LIBCMT:undname.obj
 0002:0000b220       ??_C@_07EDHNAJHC@signed?5?$AA@ 1004c220     LIBCMT:undname.obj
 0002:0000b228       ??_C@_06BNJCAIGJ@double?$AA@ 1004c228     LIBCMT:undname.obj
 0002:0000b230       ??_C@_04DDKJGDCM@bool?$AA@ 1004c230     LIBCMT:undname.obj
 0002:0000b238       ??_C@_09EEKGDCPH@?$DMunknown?$DO?$AA@ 1004c238     LIBCMT:undname.obj
 0002:0000b244       ??_C@_07CLGGIAMF@wchar_t?$AA@ 1004c244     LIBCMT:undname.obj
 0002:0000b24c       ??_C@_07NFANNNEC@UNKNOWN?$AA@ 1004c24c     LIBCMT:undname.obj
 0002:0000b254       ??_C@_08GAHOLHEO@__int128?$AA@ 1004c254     LIBCMT:undname.obj
 0002:0000b260       ??_C@_07OFLPPHGP@__int32?$AA@ 1004c260     LIBCMT:undname.obj
 0002:0000b268       ??_C@_07LFCOJCAC@__int64?$AA@ 1004c268     LIBCMT:undname.obj
 0002:0000b270       ??_C@_07ICFHOGAF@__int16?$AA@ 1004c270     LIBCMT:undname.obj
 0002:0000b278       ??_C@_06GCICPBLB@__w64?5?$AA@ 1004c278     LIBCMT:undname.obj
 0002:0000b280       ??_C@_06EBGKOKIG@__int8?$AA@ 1004c280     LIBCMT:undname.obj
 0002:0000b288       ??_C@_05KNFBNCOH@float?$AA@ 1004c288     LIBCMT:undname.obj
 0002:0000b290       ??_C@_04GOKPGOLB@long?$AA@ 1004c290     LIBCMT:undname.obj
 0002:0000b298       ??_C@_03JBIPMCLC@int?$AA@  1004c298     LIBCMT:undname.obj
 0002:0000b29c       ??_C@_05BFKKPKCG@short?$AA@ 1004c29c     LIBCMT:undname.obj
 0002:0000b2a4       ??_C@_04ENMBGAPA@char?$AA@ 1004c2a4     LIBCMT:undname.obj
 0002:0000b2ac       ??_C@_0P@GCOCNKDM@std?3?3nullptr_t?$AA@ 1004c2ac     LIBCMT:undname.obj
 0002:0000b2bc       ??_C@_0BI@DFKBFLJE@GetProcessWindowStation?$AA@ 1004c2bc     LIBCMT:crtmboxw.obj
 0002:0000b2d4       ??_C@_0BK@DEKFELLI@GetUserObjectInformationW?$AA@ 1004c2d4     LIBCMT:crtmboxw.obj
 0002:0000b2f0       ??_C@_0BD@HHGDFDBJ@GetLastActivePopup?$AA@ 1004c2f0     LIBCMT:crtmboxw.obj
 0002:0000b304       ??_C@_0BA@HNOPNCHB@GetActiveWindow?$AA@ 1004c304     LIBCMT:crtmboxw.obj
 0002:0000b314       ??_C@_0M@DLDCCGNP@MessageBoxW?$AA@ 1004c314     LIBCMT:crtmboxw.obj
 0002:0000b320       ??_C@_1BG@GOEBHBDC@?$AAU?$AAS?$AAE?$AAR?$AA3?$AA2?$AA?4?$AAD?$AAL?$AAL?$AA?$AA@ 1004c320     LIBCMT:crtmboxw.obj
 0002:0000b338       ??_C@_0BC@JEAENNKH@SystemFunction036?$AA@ 1004c338     LIBCMT:rand_s.obj
 0002:0000b34c       ??_C@_1BK@GAEMIDIL@?$AAA?$AAD?$AAV?$AAA?$AAP?$AAI?$AA3?$AA2?$AA?4?$AAD?$AAL?$AAL?$AA?$AA@ 1004c34c     LIBCMT:rand_s.obj
 0002:0000b368       ??_C@_0L@KDOEJCKC@_nextafter?$AA@ 1004c368     LIBCMT:_fpexcept_.obj
 0002:0000b374       ??_C@_05JGDBENOH@_logb?$AA@ 1004c374     LIBCMT:_fpexcept_.obj
 0002:0000b37c       ??_C@_03ONILCKOB@_yn?$AA@  1004c37c     LIBCMT:_fpexcept_.obj
 0002:0000b380       ??_C@_03NAKIGLHK@_y1?$AA@  1004c380     LIBCMT:_fpexcept_.obj
 0002:0000b384       ??_C@_03MJLDFKDL@_y0?$AA@  1004c384     LIBCMT:_fpexcept_.obj
 0002:0000b388       ??_C@_05GKKHEGJL@frexp?$AA@ 1004c388     LIBCMT:_fpexcept_.obj
 0002:0000b390       ??_C@_04KEPJIHGP@fmod?$AA@ 1004c390     LIBCMT:_fpexcept_.obj
 0002:0000b398       ??_C@_06MEIMCGCF@_hypot?$AA@ 1004c398     LIBCMT:_fpexcept_.obj
 0002:0000b3a0       ??_C@_05KBKMEMPO@_cabs?$AA@ 1004c3a0     LIBCMT:_fpexcept_.obj
 0002:0000b3a8       ??_C@_05CEJMAHNP@ldexp?$AA@ 1004c3a8     LIBCMT:_fpexcept_.obj
 0002:0000b3b0       ??_C@_04ODHECPBC@fabs?$AA@ 1004c3b0     LIBCMT:_fpexcept_.obj
 0002:0000b3b8       ??_C@_04EIAKFFMI@sqrt?$AA@ 1004c3b8     LIBCMT:_fpexcept_.obj
 0002:0000b3c0       ??_C@_05KNGEOGJB@atan2?$AA@ 1004c3c0     LIBCMT:_fpexcept_.obj
 0002:0000b3c8       ??_C@_04FJHINJAO@tanh?$AA@ 1004c3c8     LIBCMT:_fpexcept_.obj
 0002:0000b3d0       ??_C@_04HPJJNFIM@cosh?$AA@ 1004c3d0     LIBCMT:_fpexcept_.obj
 0002:0000b3d8       ??_C@_04COOMCNPB@sinh?$AA@ 1004c3d8     LIBCMT:_fpexcept_.obj
 0002:0000b3e0       ___newctype                1004c3e0     LIBCMT:ctype.obj
 0002:0000b6e0       __wctype                   1004c6e0     LIBCMT:ctype.obj
 0002:0000b8e8       ___newclmap                1004c8e8     LIBCMT:ctype.obj
 0002:0000ba68       ___newcumap                1004ca68     LIBCMT:ctype.obj
 0002:0000bbe8       ??_C@_0O@FMJNFNKE@united?9states?$AA@ 1004cbe8     LIBCMT:getqloc.obj
 0002:0000bbf8       ??_C@_0P@NDHFFKCA@united?9kingdom?$AA@ 1004cbf8     LIBCMT:getqloc.obj
 0002:0000bc08       ??_C@_0BC@HHDADLGF@trinidad?5?$CG?5tobago?$AA@ 1004cc08     LIBCMT:getqloc.obj
 0002:0000bc1c       ??_C@_0M@IOAEBDAC@south?9korea?$AA@ 1004cc1c     LIBCMT:getqloc.obj
 0002:0000bc28       ??_C@_0N@FIELFKIJ@south?9africa?$AA@ 1004cc28     LIBCMT:getqloc.obj
 0002:0000bc38       ??_C@_0M@OPNDHCMC@south?5korea?$AA@ 1004cc38     LIBCMT:getqloc.obj
 0002:0000bc44       ??_C@_0N@MDEOEPFI@south?5africa?$AA@ 1004cc44     LIBCMT:getqloc.obj
 0002:0000bc54       ??_C@_06FKAPCJLB@slovak?$AA@ 1004cc54     LIBCMT:getqloc.obj
 0002:0000bc5c       ??_C@_0M@EFJANOAL@puerto?9rico?$AA@ 1004cc5c     LIBCMT:getqloc.obj
 0002:0000bc68       ??_C@_08PGOJKDAI@pr?9china?$AA@ 1004cc68     LIBCMT:getqloc.obj
 0002:0000bc74       ??_C@_08JHDOMCMI@pr?5china?$AA@ 1004cc74     LIBCMT:getqloc.obj
 0002:0000bc80       ??_C@_02JHCHFBLL@nz?$AA@   1004cc80     LIBCMT:getqloc.obj
 0002:0000bc84       ??_C@_0M@LINHDHKP@new?9zealand?$AA@ 1004cc84     LIBCMT:getqloc.obj
 0002:0000bc90       ??_C@_09IIIPPBDB@hong?9kong?$AA@ 1004cc90     LIBCMT:getqloc.obj
 0002:0000bc9c       ??_C@_07HJLCKBG@holland?$AA@ 1004cc9c     LIBCMT:getqloc.obj
 0002:0000bca4       ??_C@_0O@LEHGMHAG@great?5britain?$AA@ 1004cca4     LIBCMT:getqloc.obj
 0002:0000bcb4       ??_C@_07FACOMELA@england?$AA@ 1004ccb4     LIBCMT:getqloc.obj
 0002:0000bcbc       ??_C@_05JIHCEICB@czech?$AA@ 1004ccbc     LIBCMT:getqloc.obj
 0002:0000bcc4       ??_C@_05BBJOBLGB@china?$AA@ 1004ccc4     LIBCMT:getqloc.obj
 0002:0000bccc       ??_C@_07GPKPHICP@britain?$AA@ 1004cccc     LIBCMT:getqloc.obj
 0002:0000bcd4       ??_C@_07MHIPBHMG@america?$AA@ 1004ccd4     LIBCMT:getqloc.obj
 0002:0000bcdc       ??_C@_03KIALPMKC@usa?$AA@  1004ccdc     LIBCMT:getqloc.obj
 0002:0000bce0       ??_C@_02FGJGKGGD@us?$AA@   1004cce0     LIBCMT:getqloc.obj
 0002:0000bce4       ??_C@_02NEINDODK@uk?$AA@   1004cce4     LIBCMT:getqloc.obj
 0002:0000bce8       ??_C@_05JMPCFJFJ@swiss?$AA@ 1004cce8     LIBCMT:getqloc.obj
 0002:0000bcf0       ??_C@_0BA@HLOCPIOD@swedish?9finland?$AA@ 1004ccf0     LIBCMT:getqloc.obj
 0002:0000bd00       ??_C@_0BC@PKCNIABK@spanish?9venezuela?$AA@ 1004cd00     LIBCMT:getqloc.obj
 0002:0000bd14       ??_C@_0BA@GBHHMIJI@spanish?9uruguay?$AA@ 1004cd14     LIBCMT:getqloc.obj
 0002:0000bd24       ??_C@_0BE@BHDOHPMC@spanish?9puerto?5rico?$AA@ 1004cd24     LIBCMT:getqloc.obj
 0002:0000bd38       ??_C@_0N@KMOIDGGN@spanish?9peru?$AA@ 1004cd38     LIBCMT:getqloc.obj
 0002:0000bd48       ??_C@_0BB@HMHLPGPH@spanish?9paraguay?$AA@ 1004cd48     LIBCMT:getqloc.obj
 0002:0000bd5c       ??_C@_0P@MCPKNGFD@spanish?9panama?$AA@ 1004cd5c     LIBCMT:getqloc.obj
 0002:0000bd6c       ??_C@_0BC@IHOHGAIL@spanish?9nicaragua?$AA@ 1004cd6c     LIBCMT:getqloc.obj
 0002:0000bd80       ??_C@_0P@KLMJDNFJ@spanish?9modern?$AA@ 1004cd80     LIBCMT:getqloc.obj
 0002:0000bd90       ??_C@_0BA@BPAPGBCM@spanish?9mexican?$AA@ 1004cd90     LIBCMT:getqloc.obj
 0002:0000bda0       ??_C@_0BB@PDECHHHE@spanish?9honduras?$AA@ 1004cda0     LIBCMT:getqloc.obj
 0002:0000bdb4       ??_C@_0BC@KLHKFGDB@spanish?9guatemala?$AA@ 1004cdb4     LIBCMT:getqloc.obj
 0002:0000bdc8       ??_C@_0BE@MFOOKJAI@spanish?9el?5salvador?$AA@ 1004cdc8     LIBCMT:getqloc.obj
 0002:0000bddc       ??_C@_0BA@FCOKFPFC@spanish?9ecuador?$AA@ 1004cddc     LIBCMT:getqloc.obj
 0002:0000bdec       ??_C@_0BL@PLMGIMOO@spanish?9dominican?5republic?$AA@ 1004cdec     LIBCMT:getqloc.obj
 0002:0000be08       ??_C@_0BD@HLGDNMHB@spanish?9costa?5rica?$AA@ 1004ce08     LIBCMT:getqloc.obj
 0002:0000be1c       ??_C@_0BB@PKCBKCPE@spanish?9colombia?$AA@ 1004ce1c     LIBCMT:getqloc.obj
 0002:0000be30       ??_C@_0O@MCBIJGNE@spanish?9chile?$AA@ 1004ce30     LIBCMT:getqloc.obj
 0002:0000be40       ??_C@_0BA@BEFEIGJJ@spanish?9bolivia?$AA@ 1004ce40     LIBCMT:getqloc.obj
 0002:0000be50       ??_C@_0BC@EMECMPD@spanish?9argentina?$AA@ 1004ce50     LIBCMT:getqloc.obj
 0002:0000be64       ??_C@_0BF@EALFLENP@portuguese?9brazilian?$AA@ 1004ce64     LIBCMT:getqloc.obj
 0002:0000be7c       ??_C@_0BC@HBLEBLNN@norwegian?9nynorsk?$AA@ 1004ce7c     LIBCMT:getqloc.obj
 0002:0000be90       ??_C@_0BB@HMACDDCK@norwegian?9bokmal?$AA@ 1004ce90     LIBCMT:getqloc.obj
 0002:0000bea4       ??_C@_09BAFFPPHE@norwegian?$AA@ 1004cea4     LIBCMT:getqloc.obj
 0002:0000beb0       ??_C@_0O@EAJFJDFG@italian?9swiss?$AA@ 1004ceb0     LIBCMT:getqloc.obj
 0002:0000bec0       ??_C@_0O@CNOMPGD@irish?9english?$AA@ 1004cec0     LIBCMT:getqloc.obj
 0002:0000bed0       ??_C@_0N@EDHBGCKG@german?9swiss?$AA@ 1004ced0     LIBCMT:getqloc.obj
 0002:0000bee0       ??_C@_0BC@JACMHNBP@german?9luxembourg?$AA@ 1004cee0     LIBCMT:getqloc.obj
 0002:0000bef4       ??_C@_0BE@HBGMGFEG@german?9lichtenstein?$AA@ 1004cef4     LIBCMT:getqloc.obj
 0002:0000bf08       ??_C@_0BA@HKKBIBKL@german?9austrian?$AA@ 1004cf08     LIBCMT:getqloc.obj
 0002:0000bf18       ??_C@_0N@GCAEPEBK@french?9swiss?$AA@ 1004cf18     LIBCMT:getqloc.obj
 0002:0000bf28       ??_C@_0BC@DJFJJCK@french?9luxembourg?$AA@ 1004cf28     LIBCMT:getqloc.obj
 0002:0000bf3c       ??_C@_0BA@NNCEDFIC@french?9canadian?$AA@ 1004cf3c     LIBCMT:getqloc.obj
 0002:0000bf4c       ??_C@_0P@CMPOCLM@french?9belgian?$AA@ 1004cf4c     LIBCMT:getqloc.obj
 0002:0000bf5c       ??_C@_0M@GHHDJOK@english?9usa?$AA@ 1004cf5c     LIBCMT:getqloc.obj
 0002:0000bf68       ??_C@_0L@PLDJKEIL@english?9us?$AA@ 1004cf68     LIBCMT:getqloc.obj
 0002:0000bf74       ??_C@_0L@HJCCDMNC@english?9uk?$AA@ 1004cf74     LIBCMT:getqloc.obj
 0002:0000bf80       ??_C@_0BK@CKLIAGJB@english?9trinidad?5y?5tobago?$AA@ 1004cf80     LIBCMT:getqloc.obj
 0002:0000bf9c       ??_C@_0BF@JMJMGNNF@english?9south?5africa?$AA@ 1004cf9c     LIBCMT:getqloc.obj
 0002:0000bfb4       ??_C@_0L@DKIIFDFD@english?9nz?$AA@ 1004cfb4     LIBCMT:getqloc.obj
 0002:0000bfc0       ??_C@_0BA@ONHGJCLH@english?9jamaica?$AA@ 1004cfc0     LIBCMT:getqloc.obj
 0002:0000bfd0       ??_C@_0M@HJBGHOPO@english?9ire?$AA@ 1004cfd0     LIBCMT:getqloc.obj
 0002:0000bfdc       ??_C@_0BC@LFEKMIFB@english?9caribbean?$AA@ 1004cfdc     LIBCMT:getqloc.obj
 0002:0000bff0       ??_C@_0M@OLDPFKHI@english?9can?$AA@ 1004cff0     LIBCMT:getqloc.obj
 0002:0000bffc       ??_C@_0P@OMDEHBMP@english?9belize?$AA@ 1004cffc     LIBCMT:getqloc.obj
 0002:0000c00c       ??_C@_0M@KFHFPFED@english?9aus?$AA@ 1004d00c     LIBCMT:getqloc.obj
 0002:0000c018       ??_C@_0BB@MNMBKDFE@english?9american?$AA@ 1004d018     LIBCMT:getqloc.obj
 0002:0000c02c       ??_C@_0O@KIDLNNBA@dutch?9belgian?$AA@ 1004d02c     LIBCMT:getqloc.obj
 0002:0000c03c       ??_C@_0BE@JBKABBMH@chinese?9traditional?$AA@ 1004d03c     LIBCMT:getqloc.obj
 0002:0000c050       ??_C@_0BC@MJJMPKCG@chinese?9singapore?$AA@ 1004d050     LIBCMT:getqloc.obj
 0002:0000c064       ??_C@_0BD@FDKADDCP@chinese?9simplified?$AA@ 1004d064     LIBCMT:getqloc.obj
 0002:0000c078       ??_C@_0BB@DBEFDDME@chinese?9hongkong?$AA@ 1004d078     LIBCMT:getqloc.obj
 0002:0000c08c       ??_C@_07DHNMFMCI@chinese?$AA@ 1004d08c     LIBCMT:getqloc.obj
 0002:0000c094       ??_C@_03FNDDCHI@chi?$AA@   1004d094     LIBCMT:getqloc.obj
 0002:0000c098       ??_C@_03BMMIADDJ@chh?$AA@  1004d098     LIBCMT:getqloc.obj
 0002:0000c09c       ??_C@_08OAIPJDGI@canadian?$AA@ 1004d09c     LIBCMT:getqloc.obj
 0002:0000c0a8       ??_C@_07HBPMNPNJ@belgian?$AA@ 1004d0a8     LIBCMT:getqloc.obj
 0002:0000c0b0       ??_C@_0L@OEKOPBEL@australian?$AA@ 1004d0b0     LIBCMT:getqloc.obj
 0002:0000c0bc       ??_C@_0BB@MEIMBEDG@american?9english?$AA@ 1004d0bc     LIBCMT:getqloc.obj
 0002:0000c0d0       ??_C@_0BB@DFMDPDGB@american?5english?$AA@ 1004d0d0     LIBCMT:getqloc.obj
 0002:0000c0e4       ??_C@_08IJLOKOLL@american?$AA@ 1004d0e4     LIBCMT:getqloc.obj
 0002:0000c0f0       ___rg_language             1004d0f0     LIBCMT:getqloc.obj
 0002:0000c2f8       ___rg_country              1004d2f8     LIBCMT:getqloc.obj
 0002:0000c3b0       ___rglangidNotDefault      1004d3b0     LIBCMT:getqloc.obj
 0002:0000c3c4       ??_C@_03NFKLAGEF@OCP?$AA@  1004d3c4     LIBCMT:getqloc.obj
 0002:0000c3c8       ??_C@_03DFHEHBHG@ACP?$AA@  1004d3c8     LIBCMT:getqloc.obj
 0002:0000c3cc       ??_C@_0BC@NFIEMBLL@Norwegian?9Nynorsk?$AA@ 1004d3cc     LIBCMT:getqloc.obj
 0002:0000c3e0       ___lookuptable_s           1004d3e0     LIBCMT:outputs.obj
 0002:0000c43c       ??_C@_06IMKFLFPG@1?$CDQNAN?$AA@ 1004d43c     LIBCMT:_x10fout_.obj
 0002:0000c444       ??_C@_05DNEBIAHO@1?$CDINF?$AA@ 1004d444     LIBCMT:_x10fout_.obj
 0002:0000c44c       ??_C@_05PHHOCPM@1?$CDIND?$AA@ 1004d44c     LIBCMT:_x10fout_.obj
 0002:0000c454       ??_C@_06PGGFOGJG@1?$CDSNAN?$AA@ 1004d454     LIBCMT:_x10fout_.obj
 0002:0000c45c       ??_C@_1BA@BALFACEM@?$AAC?$AAO?$AAN?$AAO?$AAU?$AAT?$AA$?$AA?$AA@ 1004d45c     LIBCMT:initcon.obj
 0002:0000c470       __load_config_used         1004d470     LIBCMT:loadcfg.obj
 0002:0000c518       ??_R4CBotCmd@@6B@          1004d518     serverplugin_bot.obj
 0002:0000c52c       ??_R3CBotCmd@@8            1004d52c     serverplugin_bot.obj
 0002:0000c53c       ??_R2CBotCmd@@8            1004d53c     serverplugin_bot.obj
 0002:0000c544       ??_R1A@?0A@EA@CBotCmd@@8   1004d544     serverplugin_bot.obj
 0002:0000c560       ??_R4ITraceFilter@@6B@     1004d560     serverplugin_bot.obj
 0002:0000c574       ??_R3ITraceFilter@@8       1004d574     serverplugin_bot.obj
 0002:0000c584       ??_R2ITraceFilter@@8       1004d584     serverplugin_bot.obj
 0002:0000c58c       ??_R1A@?0A@EA@ITraceFilter@@8 1004d58c     serverplugin_bot.obj
 0002:0000c5a8       ??_R4CTraceFilterWorldAndPropsOnly@@6B@ 1004d5a8     serverplugin_bot.obj
 0002:0000c5bc       ??_R3CTraceFilterWorldAndPropsOnly@@8 1004d5bc     serverplugin_bot.obj
 0002:0000c5cc       ??_R2CTraceFilterWorldAndPropsOnly@@8 1004d5cc     serverplugin_bot.obj
 0002:0000c5d8       ??_R1A@?0A@EA@CTraceFilterWorldAndPropsOnly@@8 1004d5d8     serverplugin_bot.obj
 0002:0000c5f4       ??_R4IConCommandBaseAccessor@@6B@ 1004d5f4     serverplugin_convar.obj
 0002:0000c608       ??_R3IConCommandBaseAccessor@@8 1004d608     serverplugin_convar.obj
 0002:0000c618       ??_R2IConCommandBaseAccessor@@8 1004d618     serverplugin_convar.obj
 0002:0000c620       ??_R1A@?0A@EA@IConCommandBaseAccessor@@8 1004d620     serverplugin_convar.obj
 0002:0000c63c       ??_R4CPluginConVarAccessor@@6B@ 1004d63c     serverplugin_convar.obj
 0002:0000c650       ??_R3CPluginConVarAccessor@@8 1004d650     serverplugin_convar.obj
 0002:0000c660       ??_R2CPluginConVarAccessor@@8 1004d660     serverplugin_convar.obj
 0002:0000c66c       ??_R1A@?0A@EA@CPluginConVarAccessor@@8 1004d66c     serverplugin_convar.obj
 0002:0000c688       ??_R4IGameEventListener@@6B@ 1004d688     serverplugin_empty.obj
 0002:0000c69c       ??_R3IGameEventListener@@8 1004d69c     serverplugin_empty.obj
 0002:0000c6ac       ??_R2IGameEventListener@@8 1004d6ac     serverplugin_empty.obj
 0002:0000c6b4       ??_R1A@?0A@EA@IGameEventListener@@8 1004d6b4     serverplugin_empty.obj
 0002:0000c6d0       ??_R4IServerPluginCallbacks@@6B@ 1004d6d0     serverplugin_empty.obj
 0002:0000c6e4       ??_R3IServerPluginCallbacks@@8 1004d6e4     serverplugin_empty.obj
 0002:0000c6f4       ??_R2IServerPluginCallbacks@@8 1004d6f4     serverplugin_empty.obj
 0002:0000c6fc       ??_R1A@?0A@EA@IServerPluginCallbacks@@8 1004d6fc     serverplugin_empty.obj
 0002:0000c718       ??_R4CEmptyServerPlugin@@6BIServerPluginCallbacks@@@ 1004d718     serverplugin_empty.obj
 0002:0000c72c       ??_R3CEmptyServerPlugin@@8 1004d72c     serverplugin_empty.obj
 0002:0000c73c       ??_R2CEmptyServerPlugin@@8 1004d73c     serverplugin_empty.obj
 0002:0000c74c       ??_R1A@?0A@EA@CEmptyServerPlugin@@8 1004d74c     serverplugin_empty.obj
 0002:0000c768       ??_R13?0A@EA@IGameEventListener@@8 1004d768     serverplugin_empty.obj
 0002:0000c784       ??_R4CEmptyServerPlugin@@6BIGameEventListener@@@ 1004d784     serverplugin_empty.obj
 0002:0000c798       ??_R4ConCommandBase@@6B@   1004d798     tier1:convar.obj
 0002:0000c7ac       ??_R3ConCommandBase@@8     1004d7ac     tier1:convar.obj
 0002:0000c7bc       ??_R2ConCommandBase@@8     1004d7bc     tier1:convar.obj
 0002:0000c7c4       ??_R1A@?0A@EA@ConCommandBase@@8 1004d7c4     tier1:convar.obj
 0002:0000c7e0       ??_R4ConVar@@6B@           1004d7e0     tier1:convar.obj
 0002:0000c7f4       ??_R3ConVar@@8             1004d7f4     tier1:convar.obj
 0002:0000c804       ??_R2ConVar@@8             1004d804     tier1:convar.obj
 0002:0000c810       ??_R1A@?0A@EA@ConVar@@8    1004d810     tier1:convar.obj
 0002:0000c82c       ??_R4ConCommand@@6B@       1004d82c     tier1:convar.obj
 0002:0000c840       ??_R3ConCommand@@8         1004d840     tier1:convar.obj
 0002:0000c850       ??_R2ConCommand@@8         1004d850     tier1:convar.obj
 0002:0000c85c       ??_R1A@?0A@EA@ConCommand@@8 1004d85c     tier1:convar.obj
 0002:0000c878       ??_R4CUtlCharConversion@@6B@ 1004d878     tier1:utlbuffer.obj
 0002:0000c88c       ??_R3CUtlCharConversion@@8 1004d88c     tier1:utlbuffer.obj
 0002:0000c89c       ??_R2CUtlCharConversion@@8 1004d89c     tier1:utlbuffer.obj
 0002:0000c8a4       ??_R1A@?0A@EA@CUtlCharConversion@@8 1004d8a4     tier1:utlbuffer.obj
 0002:0000c8c0       ??_R4CUtlNoEscConversion@@6B@ 1004d8c0     tier1:utlbuffer.obj
 0002:0000c8d4       ??_R3CUtlNoEscConversion@@8 1004d8d4     tier1:utlbuffer.obj
 0002:0000c8e4       ??_R2CUtlNoEscConversion@@8 1004d8e4     tier1:utlbuffer.obj
 0002:0000c8f0       ??_R1A@?0A@EA@CUtlNoEscConversion@@8 1004d8f0     tier1:utlbuffer.obj
 0002:0000c90c       ??_R4CUtlCStringConversion@@6B@ 1004d90c     tier1:utlbuffer.obj
 0002:0000c920       ??_R3CUtlCStringConversion@@8 1004d920     tier1:utlbuffer.obj
 0002:0000c930       ??_R2CUtlCStringConversion@@8 1004d930     tier1:utlbuffer.obj
 0002:0000c93c       ??_R1A@?0A@EA@CUtlCStringConversion@@8 1004d93c     tier1:utlbuffer.obj
 0002:0000c958       ??_R4type_info@@6B@        1004d958     LIBCMT:typinfo.obj
 0002:0000c96c       ??_R3type_info@@8          1004d96c     LIBCMT:typinfo.obj
 0002:0000c97c       ??_R2type_info@@8          1004d97c     LIBCMT:typinfo.obj
 0002:0000c984       ??_R1A@?0A@EA@type_info@@8 1004d984     LIBCMT:typinfo.obj
 0002:0000c9a0       ??_R4bad_exception@std@@6B@ 1004d9a0     LIBCMT:frame.obj
 0002:0000c9b4       ??_R3bad_exception@std@@8  1004d9b4     LIBCMT:frame.obj
 0002:0000c9c4       ??_R2bad_exception@std@@8  1004d9c4     LIBCMT:frame.obj
 0002:0000c9d0       ??_R1A@?0A@EA@bad_exception@std@@8 1004d9d0     LIBCMT:frame.obj
 0002:0000c9ec       ??_R1A@?0A@EA@exception@std@@8 1004d9ec     LIBCMT:frame.obj
 0002:0000ca08       ??_R3exception@std@@8      1004da08     LIBCMT:frame.obj
 0002:0000ca18       ??_R2exception@std@@8      1004da18     LIBCMT:frame.obj
 0002:0000ca20       ??_R4exception@std@@6B@    1004da20     LIBCMT:stdexcpt.obj
 0002:0000ca34       ??_R4bad_cast@std@@6B@     1004da34     LIBCMT:stdexcpt.obj
 0002:0000ca48       ??_R3bad_cast@std@@8       1004da48     LIBCMT:stdexcpt.obj
 0002:0000ca58       ??_R2bad_cast@std@@8       1004da58     LIBCMT:stdexcpt.obj
 0002:0000ca64       ??_R1A@?0A@EA@bad_cast@std@@8 1004da64     LIBCMT:stdexcpt.obj
 0002:0000ca80       ??_R4bad_typeid@std@@6B@   1004da80     LIBCMT:stdexcpt.obj
 0002:0000ca94       ??_R3bad_typeid@std@@8     1004da94     LIBCMT:stdexcpt.obj
 0002:0000caa4       ??_R2bad_typeid@std@@8     1004daa4     LIBCMT:stdexcpt.obj
 0002:0000cab0       ??_R1A@?0A@EA@bad_typeid@std@@8 1004dab0     LIBCMT:stdexcpt.obj
 0002:0000cacc       ??_R4__non_rtti_object@std@@6B@ 1004dacc     LIBCMT:stdexcpt.obj
 0002:0000cae0       ??_R3__non_rtti_object@std@@8 1004dae0     LIBCMT:stdexcpt.obj
 0002:0000caf0       ??_R2__non_rtti_object@std@@8 1004daf0     LIBCMT:stdexcpt.obj
 0002:0000cb00       ??_R1A@?0A@EA@__non_rtti_object@std@@8 1004db00     LIBCMT:stdexcpt.obj
 0002:0000cb20       ___safe_se_handler_table   1004db20     <linker-defined>
 0002:0000cba8       ___rtc_iaa                 1004dba8     LIBCMT:_initsect_.obj
 0002:0000cbac       ___rtc_izz                 1004dbac     LIBCMT:_initsect_.obj
 0002:0000cbb0       ___rtc_taa                 1004dbb0     LIBCMT:_initsect_.obj
 0002:0000cbb4       ___rtc_tzz                 1004dbb4     LIBCMT:_initsect_.obj
 0002:0000d2ec       __TI2?AVbad_exception@std@@ 1004e2ec     LIBCMT:frame.obj
 0002:0000d2fc       __CTA2?AVbad_exception@std@@ 1004e2fc     LIBCMT:frame.obj
 0002:0000d308       __CT??_R0?AVbad_exception@std@@@8??0bad_exception@std@@QAE@ABV01@@Z12 1004e308     LIBCMT:frame.obj
 0002:0000d324       __CT??_R0?AVexception@std@@@8??0exception@std@@QAE@ABV01@@Z12 1004e324     LIBCMT:frame.obj
 0002:0000d8c4       __IMPORT_DESCRIPTOR_KERNEL32 1004e8c4     kernel32:KERNEL32.dll
 0002:0000d8d8       __IMPORT_DESCRIPTOR_tier0  1004e8d8     tier0:tier0.dll
 0002:0000d8ec       __IMPORT_DESCRIPTOR_vstdlib 1004e8ec     vstdlib:vstdlib.dll
 0002:0000d900       __NULL_IMPORT_DESCRIPTOR   1004e900     kernel32:KERNEL32.dll
 0003:00000000       __amblksiz                 10050000     memoverride.obj
 0003:00000004       __crtheap                  10050004     memoverride.obj
 0003:00000008       ___active_heap             10050008     memoverride.obj
 0003:0000000c       __crtDbgFlag               1005000c     memoverride.obj
 0003:00000010       __crtAssertBusy            10050010     memoverride.obj
 0003:00000014       ??_R0?AVCBotCmd@@@8        10050014     serverplugin_bot.obj
 0003:0000002c       ??_R0?AVITraceFilter@@@8   1005002c     serverplugin_bot.obj
 0003:00000048       ??_R0?AVCTraceFilterWorldAndPropsOnly@@@8 10050048     serverplugin_bot.obj
 0003:0000007c       ??_R0?AVIConCommandBaseAccessor@@@8 1005007c     serverplugin_convar.obj
 0003:000000a4       ??_R0?AVCPluginConVarAccessor@@@8 100500a4     serverplugin_convar.obj
 0003:000000c8       ?g_ConVarAccessor@@3VCPluginConVarAccessor@@A 100500c8     serverplugin_convar.obj
 0003:000000cc       ??_R0?AVIGameEventListener@@@8 100500cc     serverplugin_empty.obj
 0003:000000f0       ??_R0?AVIServerPluginCallbacks@@@8 100500f0     serverplugin_empty.obj
 0003:00000118       ??_R0?AVCEmptyServerPlugin@@@8 10050118     serverplugin_empty.obj
 0003:00000144       ?g_EmtpyServerPlugin@@3VCEmptyServerPlugin@@A 10050144     serverplugin_empty.obj
 0003:00000150       _pfSqrt                    10050150     mathlib:mathlib_base.obj
 0003:00000154       ?pfRSqrt@@3P6AMM@ZA        10050154     mathlib:mathlib_base.obj
 0003:00000158       ?pfRSqrtFast@@3P6AMM@ZA    10050158     mathlib:mathlib_base.obj
 0003:0000015c       ?pfVectorNormalize@@3P6IMAAVVector@@@ZA 1005015c     mathlib:mathlib_base.obj
 0003:00000160       ?pfVectorNormalizeFast@@3P6IXAAVVector@@@ZA 10050160     mathlib:mathlib_base.obj
 0003:00000164       ?pfInvRSquared@@3P6AMPBM@ZA 10050164     mathlib:mathlib_base.obj
 0003:00000168       ?pfFastSinCos@@3P6AXMPAM0@ZA 10050168     mathlib:mathlib_base.obj
 0003:0000016c       ?pfFastCos@@3P6AMM@ZA      1005016c     mathlib:mathlib_base.obj
 0003:00000178       ?vec3_invalid@@3VVector@@B 10050178     mathlib:mathlib_base.obj
 0003:00000188       ??_R0?AVConCommandBase@@@8 10050188     tier1:convar.obj
 0003:000001ac       ??_R0?AVConVar@@@8         100501ac     tier1:convar.obj
 0003:000001c8       ??_R0?AVConCommand@@@8     100501c8     tier1:convar.obj
 0003:000001f0       ?g_KeyValuesErrorStack@@3VCKeyValuesErrorStack@@A 100501f0     tier1:KeyValues.obj
 0003:00000360       ??_R0?AVCUtlCharConversion@@@8 10050360     tier1:utlbuffer.obj
 0003:00000384       ??_R0?AVCUtlNoEscConversion@@@8 10050384     tier1:utlbuffer.obj
 0003:000003a8       ??_R0?AVCUtlCStringConversion@@@8 100503a8     tier1:utlbuffer.obj
 0003:000003d0       ___security_cookie         100503d0     LIBCMT:gs_cookie.obj
 0003:000003d4       ___security_cookie_complement 100503d4     LIBCMT:gs_cookie.obj
 0003:000003e0       __fltused                  100503e0     LIBCMT:_fpinit_.obj
 0003:000003e4       __ldused                   100503e4     LIBCMT:_fpinit_.obj
 0003:000003f0       ??_R0?AVtype_info@@@8      100503f0     LIBCMT:typinfo.obj
 0003:00000450       __half                     10050450     LIBCMT:_pow_.obj
 0003:00000480       ??_R0?AVbad_exception@std@@@8 10050480     LIBCMT:frame.obj
 0003:000004a0       ??_R0?AVexception@std@@@8  100504a0     LIBCMT:frame.obj
 0003:000004bc       ___flsindex                100504bc     LIBCMT:tidtable.obj
 0003:000004c0       ___getvalueindex           100504c0     LIBCMT:tidtable.obj
 0003:000004d0       ___nullstring              100504d0     LIBCMT:output.obj
 0003:000004d4       ___wnullstring             100504d4     LIBCMT:output.obj
 0003:00000648       __cfltcvt_tab              10050648     LIBCMT:cmiscdat.obj
 0003:00000670       ___abort_behavior          10050670     LIBCMT:abort.obj
 0003:00000680       ___badioinfo               10050680     LIBCMT:ioinit.obj
 0003:000006d0       ___initialmbcinfo          100506d0     LIBCMT:mbctype.obj
 0003:000008f0       __mbctype                  100508f0     LIBCMT:mbctype.obj
 0003:000009f8       __mbcasemap                100509f8     LIBCMT:mbctype.obj
 0003:00000af8       ___ptmbcinfo               10050af8     LIBCMT:mbctype.obj
 0003:00000bf0       ___globallocalestatus      10050bf0     LIBCMT:glstatus.obj
 0003:00000bf4       ___clocalestr              10050bf4     LIBCMT:nlsdata2.obj
 0003:00000bf8       ___lc_time_c               10050bf8     LIBCMT:nlsdata2.obj
 0003:00000d60       ___initiallocinfo          10050d60     LIBCMT:nlsdata2.obj
 0003:00000e38       ___ptlocinfo               10050e38     LIBCMT:nlsdata2.obj
 0003:00000e3c       ___initiallocalestructinfo 10050e3c     LIBCMT:nlsdata2.obj
 0003:00000f70       __HUGE                     10050f70     LIBCMT:_huge_.obj
 0003:00000f78       ??_R0?AVbad_cast@std@@@8   10050f78     LIBCMT:stdexcpt.obj
 0003:00000f94       ??_R0?AVbad_typeid@std@@@8 10050f94     LIBCMT:stdexcpt.obj
 0003:00000fb4       ??_R0?AV__non_rtti_object@std@@@8 10050fb4     LIBCMT:stdexcpt.obj
 0003:00000fe0       __NLG_Destination          10050fe0     LIBCMT:exsup.obj
 0003:00000ff0       __iob                      10050ff0     LIBCMT:_file.obj
 0003:00001270       __d_inf                    10051270     LIBCMT:_util_.obj
 0003:00001278       __d_ind                    10051278     LIBCMT:_util_.obj
 0003:00001280       __d_max                    10051280     LIBCMT:_util_.obj
 0003:00001288       __d_min                    10051288     LIBCMT:_util_.obj
 0003:00001290       __d_mzero                  10051290     LIBCMT:_util_.obj
 0003:00001298       __matherr_flag             10051298     LIBCMT:_matherr_.obj
 0003:000013a8       ___lconv_static_decimal    100513a8     LIBCMT:lconv.obj
 0003:000013ac       ___lconv_static_W_decimal  100513ac     LIBCMT:lconv.obj
 0003:000013b0       ___lconv_c                 100513b0     LIBCMT:lconv.obj
 0003:00001400       ___lconv                   10051400     LIBCMT:lconv.obj
 0003:00001404       __pctype                   10051404     LIBCMT:ctype.obj
 0003:00001408       __pwctype                  10051408     LIBCMT:ctype.obj
 0003:00001440       __pow10pos                 10051440     LIBCMT:_constpow_.obj
 0003:000015a0       __pow10neg                 100515a0     LIBCMT:_constpow_.obj
 0003:000016fc       ___mb_cur_max              100516fc     LIBCMT:nlsdata1.obj
 0003:00001700       ___decimal_point           10051700     LIBCMT:nlsdata1.obj
 0003:00001704       ___decimal_point_length    10051704     LIBCMT:nlsdata1.obj
 0003:00001710       __lookuptrailbytes         10051710     LIBCMT:read.obj
 0003:00001810       __confh                    10051810     LIBCMT:initcon.obj
 0003:00001820       __crtBreakAlloc            10051820     memoverride.obj
 0003:00001824       ?_pfnDumpClient@@3P6AXPAXI@ZA 10051824     memoverride.obj
 0003:00001828       ___crtDebugCheckCount      10051828     memoverride.obj
 0003:0000182c       ___crtDebugFillThreshold   1005182c     memoverride.obj
 0003:00001c58       ?bot_forceattack2@@3VConVar@@A 10051c58     serverplugin_bot.obj
 0003:00001c9c       ?cc_Bot@@3VConCommand@@A   10051c9c     serverplugin_bot.obj
 0003:00001cc0       ?bot_sendcmd@@3VConVar@@A  10051cc0     serverplugin_bot.obj
 0003:00001d04       ?s_Bots@@3V?$CUtlVector@VCPluginBot@@V?$CUtlMemory@VCPluginBot@@@@@@A 10051d04     serverplugin_bot.obj
 0003:00001d18       ?bot_flipout@@3VConVar@@A  10051d18     serverplugin_bot.obj
 0003:00001d60       ?bot_forcefireweapon@@3VConVar@@A 10051d60     serverplugin_bot.obj
 0003:00001da8       ?bot_crouch@@3VConVar@@A   10051da8     serverplugin_bot.obj
 0003:00001df0       ?bot_forceattackon@@3VConVar@@A 10051df0     serverplugin_bot.obj
 0003:00001e80       ?bot_changeclass@@3VConVar@@A 10051e80     serverplugin_bot.obj
 0003:00001f10       ?engine@@3PAVIVEngineServer@@A 10051f10     serverplugin_empty.obj
 0003:00001f14       ?filesystem@@3PAVIFileSystem@@A 10051f14     serverplugin_empty.obj
 0003:00001f18       ?gameeventmanager@@3PAVIGameEventManager@@A 10051f18     serverplugin_empty.obj
 0003:00001f1c       ?playerinfomanager@@3PAVIPlayerInfoManager@@A 10051f1c     serverplugin_empty.obj
 0003:00001f20       ?botmanager@@3PAVIBotManager@@A 10051f20     serverplugin_empty.obj
 0003:00001f24       ?helpers@@3PAVIServerPluginHelpers@@A 10051f24     serverplugin_empty.obj
 0003:00001f28       ?randomStr@@3PAVIUniformRandomStream@@A 10051f28     serverplugin_empty.obj
 0003:00001f2c       ?enginetrace@@3PAVIEngineTrace@@A 10051f2c     serverplugin_empty.obj
 0003:00001f30       ?gpGlobals@@3PAVCGlobalVars@@A 10051f30     serverplugin_empty.obj
 0003:000023d8       ?lineartolightmap@@3PAEA   100523d8     mathlib:mathlib_base.obj
 0003:000037d8       ?SinCosTable@@3PAMA        100537d8     mathlib:mathlib_base.obj
 0003:00005bd8       ?power2_n@@3PAMA           10055bd8     mathlib:mathlib_base.obj
 0003:000063d8       ?lineartovertex@@3PAMA     100563d8     mathlib:mathlib_base.obj
 0003:0000a4e8       ?vec3_origin@@3VVector@@B  1005a4e8     mathlib:mathlib_base.obj
 0003:0000a4f4       ?vec3_angle@@3VQAngle@@B   1005a4f4     mathlib:mathlib_base.obj
 0003:0000a504       ?s_pConCommandBases@ConCommandBase@@2PAV1@A 1005a504     tier1:convar.obj
 0003:0000a508       ?s_pAccessor@ConCommandBase@@2PAVIConCommandBaseAccessor@@A 1005a508     tier1:convar.obj
 0003:0000b520       ?s_pInterfaceRegs@InterfaceReg@@2PAV1@A 1005b520     tier1:interface.obj
 0003:0000b530       ?s_StringCharConversion@@3VCUtlCStringConversion@@A 1005b530     tier1:utlbuffer.obj
 0003:0000bf40       ?s_NoEscConversion@@3VCUtlNoEscConversion@@A 1005bf40     tier1:utlbuffer.obj
 0003:0000c850       ___fastflag                1005c850     LIBCMT:_fpinit_.obj
 0003:0000c858       __aenvptr                  1005c858     LIBCMT:dllcrt0.obj
 0003:0000c85c       __wenvptr                  1005c85c     LIBCMT:dllcrt0.obj
 0003:0000c860       ___error_mode              1005c860     LIBCMT:dllcrt0.obj
 0003:0000c864       ___app_type                1005c864     LIBCMT:dllcrt0.obj
 0003:0000c868       _gpFlsAlloc                1005c868     LIBCMT:tidtable.obj
 0003:0000c86c       _gpFlsGetValue             1005c86c     LIBCMT:tidtable.obj
 0003:0000c870       _gpFlsSetValue             1005c870     LIBCMT:tidtable.obj
 0003:0000c874       _gpFlsFree                 1005c874     LIBCMT:tidtable.obj
 0003:0000c878       ?__pInconsistency@@3P6AXXZA 1005c878     LIBCMT:hooks.obj
 0003:0000cba4       ___pInvalidArgHandler      1005cba4     LIBCMT:invarg.obj
 0003:0000d1d8       ___pPurecall               1005d1d8     LIBCMT:inithelp.obj
 0003:0000d1dc       __umaskval                 1005d1dc     LIBCMT:crt0dat.obj
 0003:0000d1e0       ___argc                    1005d1e0     LIBCMT:crt0dat.obj
 0003:0000d1e4       ___argv                    1005d1e4     LIBCMT:crt0dat.obj
 0003:0000d1e8       ___wargv                   1005d1e8     LIBCMT:crt0dat.obj
 0003:0000d1ec       __environ                  1005d1ec     LIBCMT:crt0dat.obj
 0003:0000d1f0       ___initenv                 1005d1f0     LIBCMT:crt0dat.obj
 0003:0000d1f4       __wenviron                 1005d1f4     LIBCMT:crt0dat.obj
 0003:0000d1f8       ___winitenv                1005d1f8     LIBCMT:crt0dat.obj
 0003:0000d1fc       __pgmptr                   1005d1fc     LIBCMT:crt0dat.obj
 0003:0000d200       __wpgmptr                  1005d200     LIBCMT:crt0dat.obj
 0003:0000d204       __exitflag                 1005d204     LIBCMT:crt0dat.obj
 0003:0000d208       __C_Termination_Done       1005d208     LIBCMT:crt0dat.obj
 0003:0000d20c       __C_Exit_Done              1005d20c     LIBCMT:crt0dat.obj
 0003:0000d320       ___mbulinfo                1005d320     LIBCMT:mbctype.obj
 0003:0000d32c       ___mbcodepage              1005d32c     LIBCMT:mbctype.obj
 0003:0000d330       ___ismbcodepage            1005d330     LIBCMT:mbctype.obj
 0003:0000d334       ___mblcid                  1005d334     LIBCMT:mbctype.obj
 0003:0000d338       ___locale_changed          1005d338     LIBCMT:setlocal.obj
 0003:0000d490       __cflush                   1005d490     LIBCMT:_file.obj
 0003:0000d498       __outputformat             1005d498     LIBCMT:outputformat.obj
 0003:0000d4b0       ?pArgList@UnDecorator@@0PAVReplicator@@A 1005d4b0     LIBCMT:undname.obj
 0003:0000d4b4       ?pZNameList@UnDecorator@@0PAVReplicator@@A 1005d4b4     LIBCMT:undname.obj
 0003:0000d4b8       ?pTemplateArgList@UnDecorator@@0PAVReplicator@@A 1005d4b8     LIBCMT:undname.obj
 0003:0000d4bc       ?gName@UnDecorator@@0PBDB  1005d4bc     LIBCMT:undname.obj
 0003:0000d4c0       ?name@UnDecorator@@0PBDB   1005d4c0     LIBCMT:undname.obj
 0003:0000d4c4       ?outputString@UnDecorator@@0PADA 1005d4c4     LIBCMT:undname.obj
 0003:0000d4c8       ?maxStringLength@UnDecorator@@0HA 1005d4c8     LIBCMT:undname.obj
 0003:0000d4cc       ?disableFlags@UnDecorator@@0KA 1005d4cc     LIBCMT:undname.obj
 0003:0000d4d0       ?m_pGetParameter@UnDecorator@@0P6APADJ@ZA 1005d4d0     LIBCMT:undname.obj
 0003:0000d4d4       ?fExplicitTemplateParams@UnDecorator@@0_NA 1005d4d4     LIBCMT:undname.obj
 0003:0000d4d5       ?fGetTemplateArgumentList@UnDecorator@@0_NA 1005d4d5     LIBCMT:undname.obj
 0003:0000d4d8       ?nodes@?1??make@DNameStatusNode@@SAPAV2@W4DNameStatus@@@Z@4PAV2@A 1005d4d8     LIBCMT:undname.obj
 0003:0000d508       ??_B?1??make@DNameStatusNode@@SAPAV1@W4DNameStatus@@@Z@51 1005d508     LIBCMT:undname.obj
 0003:0000d538       ?_pnhHeap@@3P6AHI@ZA       1005d538     LIBCMT:handler.obj
 0003:0000d53c       ___lconv_static_null       1005d53c     LIBCMT:lconv.obj
 0003:0000d540       ___lconv_static_W_null     1005d540     LIBCMT:lconv.obj
 0003:0000d544       __stdbuf                   1005d544     LIBCMT:_sftbuf.obj
 0003:0000d54c       ___piob                    1005d54c     <common>
 0003:0000d560       __bufin                    1005d560     <common>
 0003:0000e560       __nstream                  1005e560     <common>
 0003:0000e564       __debugger_hook_dummy      1005e564     <common>
 0003:0000e568       ___setlc_active            1005e568     <common>
 0003:0000e56c       ___unguarded_readlc_active 1005e56c     <common>
 0003:0000e570       __pmatherr                 1005e570     <common>
 0003:0000e574       ___use_sse2_mathfcns       1005e574     <common>
 0003:0000e578       __nhandle                  1005e578     <common>
 0003:0000e580       ___pioinfo                 1005e580     <common>
 0003:0000e680       ___env_initialized         1005e680     <common>
 0003:0000e684       ___onexitend               1005e684     <common>
 0003:0000e688       ___onexitbegin             1005e688     <common>
 0003:0000e68c       ___mbctype_initialized     1005e68c     <common>
 0003:0000e690       ___dyn_tls_init_callback   1005e690     <common>
 0003:0000e694       ___sse2_available          1005e694     <common>
 0003:0000e698       __acmdln                   1005e698     <common>

 entry point at        0001:00016383

 Static symbols

 0001:000000a0       ?AllocUnattributed@@YAPAXI@Z 100010a0 f   memoverride.obj
 0001:00000140       ?ReallocUnattributed@@YAPAXPAXI@Z 10001140 f   memoverride.obj
 0001:00002570       ?__CreateCEmptyServerPluginIServerPluginCallbacks_interface@@YAPAXXZ 10003570 f   serverplugin_empty.obj
 0001:00002930       ?empty_version@@YAXXZ      10003930 f   serverplugin_empty.obj
 0001:00002940       ?empty_log@@YAXXZ          10003940 f   serverplugin_empty.obj
 0001:000036d0       ?FLerp@@YAMMMMMM@Z         100046d0 f   mathlib:mathlib_base.obj
 0001:000098d0       ?VectorToColorRGBExp32_CalcExponent@@YAHM@Z 1000a8d0 f   mathlib:mathlib_base.obj
 0001:0000d070       ?V_nibble@@YAED@Z          1000e070 f   tier1:strtools.obj
 0001:0000d550       ?CopyToMaxChars@@YA_NPADHPBDH@Z 1000e550 f   tier1:strtools.obj
 0001:00012d50       ?Sys_GetProcAddress@@YAPAXPBD0@Z 10013d50 f   tier1:interface.obj
 0001:00012d60       ?Sys_GetProcAddress@@YAPAXPAUHINSTANCE__@@PBD@Z 10013d60 f   tier1:interface.obj
 0001:00012d70       ?Sys_IsDebuggerPresent@@YA_NXZ 10013d70 f   tier1:interface.obj
 0001:00015609       ?CatchGuardHandler@@YA?AW4_EXCEPTION_DISPOSITION@@PAUEHExceptionRecord@@PAUCatchGuardRN@@PAX2@Z 10016609 f   LIBCMT:_trnsctrl_.obj
 0001:00015713       ?TranslatorGuardHandler@@YA?AW4_EXCEPTION_DISPOSITION@@PAUEHExceptionRecord@@PAUTranslatorGuardRN@@PAX2@Z 10016713 f   LIBCMT:_trnsctrl_.obj
 0001:00015fef       __onexit_nolock            10016fef f   LIBCMT:onexit.obj
 0001:0001628d       ___DllMainCRTStartup       1001728d f   LIBCMT:dllcrt0.obj
 0001:000186c3       _vscan_fn                  100196c3 f   LIBCMT:sscanf.obj
 0001:000188f5       ?strtoxl@@YAKPAUlocaleinfo_struct@@PBDPAPBDHH@Z 100198f5 f   LIBCMT:strtol.obj
 0001:00018d8b       ?ExFilterRethrow@@YAHPAU_EXCEPTION_POINTERS@@@Z 10019d8b f   LIBCMT:frame.obj
 0001:0001917a       ?IsInExceptionSpec@@YAEPAUEHExceptionRecord@@PBU_s_ESTypeList@@@Z 1001a17a f   LIBCMT:frame.obj
 0001:000191f0       ?CallUnexpected@@YAXPBU_s_ESTypeList@@@Z 1001a1f0 f   LIBCMT:frame.obj
 0001:00019221       __catch$?CallUnexpected@@YAXPBU_s_ESTypeList@@@Z$0 1001a221 f   LIBCMT:frame.obj
 0001:00019239       ?Is_bad_exception_allowed@@YAEPBU_s_ESTypeList@@@Z 1001a239 f   LIBCMT:frame.obj
 0001:000192f1       ?CallCatchBlock@@YAPAXPAUEHExceptionRecord@@PAUEHRegistrationNode@@PAU_CONTEXT@@PBU_s_FuncInfo@@PAXHK@Z 1001a2f1 f   LIBCMT:frame.obj
 0001:000197ec       ?CatchIt@@YAXPAUEHExceptionRecord@@PAUEHRegistrationNode@@PAU_CONTEXT@@PAXPBU_s_FuncInfo@@PBU_s_HandlerType@@PBU_s_CatchableType@@PBU_s_TryBlockMapEntry@@H1E@Z 1001a7ec f   LIBCMT:frame.obj
 0001:0001985a       ?FindHandlerForForeignException@@YAXPAUEHExceptionRecord@@PAUEHRegistrationNode@@PAU_CONTEXT@@PAXPBU_s_FuncInfo@@HH1@Z 1001a85a f   LIBCMT:frame.obj
 0001:00019961       ?FindHandler@@YAXPAUEHExceptionRecord@@PAUEHRegistrationNode@@PAU_CONTEXT@@PAXPBU_s_FuncInfo@@EH1@Z 1001a961 f   LIBCMT:frame.obj
 0001:0001a720       _write_char                1001b720 f   LIBCMT:output.obj
 0001:0001a753       _write_multi_char          1001b753 f   LIBCMT:output.obj
 0001:0001a779       _write_string              1001b779 f   LIBCMT:output.obj
 0001:0001b8e4       __shift                    1001c8e4 f   LIBCMT:cvt.obj
 0001:0001b929       __cftoe2_l                 1001c929 f   LIBCMT:cvt.obj
 0001:0001bf07       __cftof2_l                 1001cf07 f   LIBCMT:cvt.obj
 0001:0001cc8d       __initterm                 1001dc8d f   LIBCMT:crt0dat.obj
 0001:0001cdc5       _doexit                    1001ddc5 f   LIBCMT:crt0dat.obj
 0001:0001cfd0       _ValidateLocalCookies      1001dfd0 f   LIBCMT:chandler4.obj
 0001:0001d512       _parse_cmdline             1001e512 f   LIBCMT:stdargv.obj
 0001:0001d84a       _xcptlookup                1001e84a f   LIBCMT:winxfltr.obj
 0001:0002056b       ?CPtoLCID@@YAHH@Z          1002156b f   LIBCMT:mbctype.obj
 0001:0002059a       ?setSBCS@@YAXPAUthreadmbcinfostruct@@@Z 1002159a f   LIBCMT:mbctype.obj
 0001:000205fe       ?setSBUpLow@@YAXPAUthreadmbcinfostruct@@@Z 100215fe f   LIBCMT:mbctype.obj
 0001:00020832       ?getSystemCP@@YAHH@Z       10021832 f   LIBCMT:mbctype.obj
 0001:00021ec7       ?strncnt@@YAHPBDH@Z        10022ec7 f   LIBCMT:a_map.obj
 0001:00021ee5       ?__crtLCMapStringA_stat@@YAHPAUlocaleinfo_struct@@KKPBDHPADHHH@Z 10022ee5 f   LIBCMT:a_map.obj
 0001:000223d5       __copytlocinfo_nolock      100233d5 f   LIBCMT:setlocal.obj
 0001:00022459       _sync_legacy_variables_lk  10023459 f   LIBCMT:setlocal.obj
 0001:000227d1       __setlocale_get_all        100237d1 f   LIBCMT:setlocal.obj
 0001:00022b57       __setlocale_set_cat        10023b57 f   LIBCMT:setlocal.obj
 0001:00022e91       __setlocale_nolock         10023e91 f   LIBCMT:setlocal.obj
 0001:00023650       _write_char                10024650 f   LIBCMT:woutput.obj
 0001:0002367f       _write_multi_char          1002467f f   LIBCMT:woutput.obj
 0001:000236a6       _write_string              100246a6 f   LIBCMT:woutput.obj
 0001:00024420       _write_char                10025420 f   LIBCMT:woutputp.obj
 0001:0002444f       _write_multi_char          1002544f f   LIBCMT:woutputp.obj
 0001:00024476       _write_string              10025476 f   LIBCMT:woutputp.obj
 0001:000257b1       ?wcstoxl@@YAKPB_WPAPB_WHH@Z 100267b1 f   LIBCMT:wcstol.obj
 0001:000259db       ?wcstoxq@@YA_KPAUlocaleinfo_struct@@PB_WPAPB_WHH@Z 100269db f   LIBCMT:wcstoq.obj
 0001:00025d13       ?strtoxq@@YA_KPAUlocaleinfo_struct@@PBDPAPBDHH@Z 10026d13 f   LIBCMT:strtoq.obj
 0001:000260db       ___check_float_string      100270db f   LIBCMT:input.obj
 0001:00026144       __hextodec                 10027144 f   LIBCMT:input.obj
 0001:00026164       __inc                      10027164 f   LIBCMT:input.obj
 0001:0002617a       __un_inc                   1002717a f   LIBCMT:input.obj
 0001:0002618d       __whiteout                 1002718d f   LIBCMT:input.obj
 0001:000271bb       ___check_float_string      100281bb f   LIBCMT:inputs.obj
 0001:00027212       __hextodec                 10028212 f   LIBCMT:inputs.obj
 0001:00027232       __inc                      10028232 f   LIBCMT:inputs.obj
 0001:00027248       __un_inc                   10028248 f   LIBCMT:inputs.obj
 0001:0002725b       __whiteout                 1002825b f   LIBCMT:inputs.obj
 0001:000287f0       __unwind_handler           100297f0 f   LIBCMT:exsup.obj
 0001:0002a951       ?und_strlen@@YAIPBD@Z      1002b951 f   LIBCMT:undname.obj
 0001:0002a95f       ?und_memcpy@@YAXPADPBDI@Z  1002b95f f   LIBCMT:undname.obj
 0001:0002a975       ?und_strncmp@@YAIPBD0I@Z   1002b975 f   LIBCMT:undname.obj
 0001:0002f950       __unwind_handler4          10030950 f   LIBCMT:exsup4.obj
 0001:0002fa30       _ctrlevent_capture@4       10030a30 f   LIBCMT:winsig.obj
 0001:0002facc       _siglookup                 10030acc f   LIBCMT:winsig.obj
 0001:00030334       ?__crtGetLocaleInfoA_stat@@YAHPAUlocaleinfo_struct@@KKPADH@Z 10031334 f   LIBCMT:a_loc.obj
 0001:0003071c       ?x_ismbbtype_l@@YAHPAUlocaleinfo_struct@@IHH@Z 1003171c f   LIBCMT:ismbbyte.obj
 0001:00031722       __get_fname                10032722 f   LIBCMT:_fpexcept_.obj
 0001:00031c44       ?__crtGetStringTypeA_stat@@YAHPAUlocaleinfo_struct@@KPBDHPAGHHH@Z 10032c44 f   LIBCMT:a_str.obj
 0001:00031d6b       __get_lc_time              10032d6b f   LIBCMT:inittime.obj
 0001:0003295e       _fix_grouping              1003395e f   LIBCMT:initnum.obj
 0001:00032be7       _fix_grouping              10033be7 f   LIBCMT:initmon.obj
 0001:00034c06       _TranslateName             10035c06 f   LIBCMT:getqloc.obj
 0001:00034c68       _GetLcidFromDefault        10035c68 f   LIBCMT:getqloc.obj
 0001:00034c7c       _ProcessCodePage           10035c7c f   LIBCMT:getqloc.obj
 0001:00034d00       _TestDefaultCountry        10035d00 f   LIBCMT:getqloc.obj
 0001:00034d25       _LcidFromHexString         10035d25 f   LIBCMT:getqloc.obj
 0001:00034d56       _GetPrimaryLen             10035d56 f   LIBCMT:getqloc.obj
 0001:00034d71       _CountryEnumProc@4         10035d71 f   LIBCMT:getqloc.obj
 0001:00034e18       _TestDefaultLanguage       10035e18 f   LIBCMT:getqloc.obj
 0001:00034e73       _LangCountryEnumProc@4     10035e73 f   LIBCMT:getqloc.obj
 0001:00035044       _LanguageEnumProc@4        10036044 f   LIBCMT:getqloc.obj
 0001:00035104       _GetLcidFromCountry        10036104 f   LIBCMT:getqloc.obj
 0001:00035130       _GetLcidFromLangCountry    10036130 f   LIBCMT:getqloc.obj
 0001:00035197       _GetLcidFromLanguage       10036197 f   LIBCMT:getqloc.obj
 0001:000353c4       _cmpResult                 100363c4 f   LIBCMT:memcmp.obj
 0001:000353d4       _cmpBYTE                   100363d4 f   LIBCMT:memcmp.obj
 0001:000353ea       _cmpWORD                   100363ea f   LIBCMT:memcmp.obj
 0001:00035426       _cmpDWORD                  10036426 f   LIBCMT:memcmp.obj
 0001:00035496       _unaligned_memcmp          10036496 f   LIBCMT:memcmp.obj
 0001:000383f4       _write_char                100393f4 f   LIBCMT:outputp.obj
 0001:00038427       _write_multi_char          10039427 f   LIBCMT:outputp.obj
 0001:0003844d       _write_string              1003944d f   LIBCMT:outputp.obj
 0001:000397e8       _write_char                1003a7e8 f   LIBCMT:outputs.obj
 0001:0003981b       _write_multi_char          1003a81b f   LIBCMT:outputs.obj
 0001:00039841       _write_string              1003a841 f   LIBCMT:outputs.obj
 0001:0003af9e       _flsall                    1003bf9e f   LIBCMT:fflush.obj
 0001:0003bc3f       __abstract_cw              1003cc3f f   LIBCMT:_ieee87_.obj
 0001:0003bcde       __hw_cw                    1003ccde f   LIBCMT:_ieee87_.obj
 0001:0003bd6c       __abstract_sw              1003cd6c f   LIBCMT:_ieee87_.obj
 0001:0003bdaf       ___abstract_cw_sse2        1003cdaf f   LIBCMT:_ieee87_.obj
 0001:0003be4f       ___hw_cw_sse2              1003ce4f f   LIBCMT:_ieee87_.obj
 0001:0003beef       ___abstract_sw_sse2        1003ceef f   LIBCMT:_ieee87_.obj
 0001:0003bf32       ___fpreset_sse2            1003cf32 f   LIBCMT:_ieee87_.obj
 0001:0003c008       ___statusfp_sse2           1003d008 f   LIBCMT:_ieee87_.obj
 0001:0003c043       ___clearfp_sse2            1003d043 f   LIBCMT:_ieee87_.obj
 0001:0003c093       ___control87_sse2          1003d093 f   LIBCMT:_ieee87_.obj
 0001:0003d0a1       _xtoa_s@20                 1003e0a1 f   LIBCMT:xtoas.obj
 0001:0003d1c6       @x64toa_s@24               1003e1c6 f   LIBCMT:xtoas.obj
 0001:0003e106       ?_strupr_s_l_stat@@YAHPADIPAUlocaleinfo_struct@@@Z 1003f106 f   LIBCMT:strupr.obj
 0001:0003e5a0       __unwindfunclet$?AllocUnattributed@@YAPAXI@Z$0 1003f5a0 f   memoverride.obj
 0001:0003e5ae       __ehhandler$?AllocUnattributed@@YAPAXI@Z 1003f5ae f   memoverride.obj
 0001:0003e5d0       __unwindfunclet$?ReallocUnattributed@@YAPAXPAXI@Z$0 1003f5d0 f   memoverride.obj
 0001:0003e5de       __ehhandler$?ReallocUnattributed@@YAPAXPAXI@Z 1003f5de f   memoverride.obj
 0001:0003e600       __unwindfunclet$?Bot_Think@@YAXPAVCPluginBot@@@Z$0 1003f600 f   serverplugin_bot.obj
 0001:0003e608       __ehhandler$?Bot_Think@@YAXPAVCPluginBot@@@Z 1003f608 f   serverplugin_bot.obj
 0001:0003e630       __unwindfunclet$??1?$CUtlVector@VCPluginBot@@V?$CUtlMemory@VCPluginBot@@@@@@QAE@XZ$0 1003f630 f   serverplugin_bot.obj
 0001:0003e638       __ehhandler$??1?$CUtlVector@VCPluginBot@@V?$CUtlMemory@VCPluginBot@@@@@@QAE@XZ 1003f638 f   serverplugin_bot.obj
 0001:0003e660       __unwindfunclet$??__Fs_Bots@@YAXXZ$0 1003f660 f   serverplugin_bot.obj
 0001:0003e66a       __ehhandler$??__Fs_Bots@@YAXXZ 1003f66a f   serverplugin_bot.obj
 0001:0003e690       __unwindfunclet$?ClientPutInServer@CEmptyServerPlugin@@UAEXPAUedict_t@@PBD@Z$0 1003f690 f   serverplugin_empty.obj
 0001:0003e69b       __ehhandler$?ClientPutInServer@CEmptyServerPlugin@@UAEXPAUedict_t@@PBD@Z 1003f69b f   serverplugin_empty.obj
 0001:0003e6c0       __unwindfunclet$?ClientCommand@CEmptyServerPlugin@@UAE?AW4PLUGIN_RESULT@@PAUedict_t@@@Z$0 1003f6c0 f   serverplugin_empty.obj
 0001:0003e6cb       __unwindfunclet$?ClientCommand@CEmptyServerPlugin@@UAE?AW4PLUGIN_RESULT@@PAUedict_t@@@Z$1 1003f6cb f   serverplugin_empty.obj
 0001:0003e6d6       __unwindfunclet$?ClientCommand@CEmptyServerPlugin@@UAE?AW4PLUGIN_RESULT@@PAUedict_t@@@Z$2 1003f6d6 f   serverplugin_empty.obj
 0001:0003e6e1       __unwindfunclet$?ClientCommand@CEmptyServerPlugin@@UAE?AW4PLUGIN_RESULT@@PAUedict_t@@@Z$3 1003f6e1 f   serverplugin_empty.obj
 0001:0003e6ec       __ehhandler$?ClientCommand@CEmptyServerPlugin@@UAE?AW4PLUGIN_RESULT@@PAUedict_t@@@Z 1003f6ec f   serverplugin_empty.obj
 0001:0003e720       __unwindfunclet$??1ConVar@@UAE@XZ$0 1003f720 f   tier1:convar.obj
 0001:0003e728       __ehhandler$??1ConVar@@UAE@XZ 1003f728 f   tier1:convar.obj
 0001:0003e750       __unwindfunclet$??0ConCommand@@QAE@PBDP6AXXZ0HP6AH0QAY0EA@D@Z@Z$0 1003f750 f   tier1:convar.obj
 0001:0003e758       __ehhandler$??0ConCommand@@QAE@PBDP6AXXZ0HP6AH0QAY0EA@D@Z@Z 1003f758 f   tier1:convar.obj
 0001:0003e780       __unwindfunclet$??0ConVar@@QAE@PBD0H@Z$0 1003f780 f   tier1:convar.obj
 0001:0003e788       __ehhandler$??0ConVar@@QAE@PBD0H@Z 1003f788 f   tier1:convar.obj
 0001:0003e7b0       __unwindfunclet$??_GConVar@@UAEPAXI@Z$0 1003f7b0 f   tier1:convar.obj
 0001:0003e7b8       __ehhandler$??_GConVar@@UAEPAXI@Z 1003f7b8 f   tier1:convar.obj
 0001:0003e7e0       __unwindfunclet$??0ConVar@@QAE@PBD0H0@Z$0 1003f7e0 f   tier1:convar.obj
 0001:0003e7e8       __ehhandler$??0ConVar@@QAE@PBD0H0@Z 1003f7e8 f   tier1:convar.obj
 0001:0003e810       __unwindfunclet$??0ConVar@@QAE@PBD0H0_NM1M@Z$0 1003f810 f   tier1:convar.obj
 0001:0003e818       __ehhandler$??0ConVar@@QAE@PBD0H0_NM1M@Z 1003f818 f   tier1:convar.obj
 0001:0003e840       __unwindfunclet$??0ConVar@@QAE@PBD0H0P6AXPAV0@0@Z@Z$0 1003f840 f   tier1:convar.obj
 0001:0003e848       __ehhandler$??0ConVar@@QAE@PBD0H0P6AXPAV0@0@Z@Z 1003f848 f   tier1:convar.obj
 0001:0003e870       __unwindfunclet$??0ConVar@@QAE@PBD0H0_NM1MP6AXPAV0@0@Z@Z$0 1003f870 f   tier1:convar.obj
 0001:0003e878       __ehhandler$??0ConVar@@QAE@PBD0H0_NM1MP6AXPAV0@0@Z@Z 1003f878 f   tier1:convar.obj
 0001:0003e8a0       __unwindfunclet$?LoadFromFile@KeyValues@@QAE_NPAVIBaseFileSystem@@PBD1@Z$0 1003f8a0 f   tier1:KeyValues.obj
 0001:0003e8a8       __ehhandler$?LoadFromFile@KeyValues@@QAE_NPAVIBaseFileSystem@@PBD1@Z 1003f8a8 f   tier1:KeyValues.obj
 0001:0003e8d0       __unwindfunclet$?FindKey@KeyValues@@QAEPAV1@PBD_N@Z$0 1003f8d0 f   tier1:KeyValues.obj
 0001:0003e8de       __ehhandler$?FindKey@KeyValues@@QAEPAV1@PBD_N@Z 1003f8de f   tier1:KeyValues.obj
 0001:0003e910       __unwindfunclet$?RecursiveCopyKeyValues@KeyValues@@AAEXAAV1@@Z$0 1003f910 f   tier1:KeyValues.obj
 0001:0003e91e       __unwindfunclet$?RecursiveCopyKeyValues@KeyValues@@AAEXAAV1@@Z$1 1003f91e f   tier1:KeyValues.obj
 0001:0003e92c       __ehhandler$?RecursiveCopyKeyValues@KeyValues@@AAEXAAV1@@Z 1003f92c f   tier1:KeyValues.obj
 0001:0003e960       __unwindfunclet$?MakeCopy@KeyValues@@QBEPAV1@XZ$0 1003f960 f   tier1:KeyValues.obj
 0001:0003e96b       __ehhandler$?MakeCopy@KeyValues@@QBEPAV1@XZ 1003f96b f   tier1:KeyValues.obj
 0001:0003e990       __unwindfunclet$?CreateKey@KeyValues@@AAEPAV1@PBD@Z$0 1003f990 f   tier1:KeyValues.obj
 0001:0003e99b       __ehhandler$?CreateKey@KeyValues@@AAEPAV1@PBD@Z 1003f99b f   tier1:KeyValues.obj
 0001:0003e9c0       __unwindfunclet$?RecursiveLoadFromBuffer@KeyValues@@AAEXPBDAAVCUtlBuffer@@@Z$0 1003f9c0 f   tier1:KeyValues.obj
 0001:0003e9c8       __unwindfunclet$?RecursiveLoadFromBuffer@KeyValues@@AAEXPBDAAVCUtlBuffer@@@Z$1 1003f9c8 f   tier1:KeyValues.obj
 0001:0003e9d0       __ehhandler$?RecursiveLoadFromBuffer@KeyValues@@AAEXPBDAAVCUtlBuffer@@@Z 1003f9d0 f   tier1:KeyValues.obj
 0001:0003e9f0       __unwindfunclet$?ReadAsBinary@KeyValues@@QAE_NAAVCUtlBuffer@@@Z$0 1003f9f0 f   tier1:KeyValues.obj
 0001:0003e9fe       __unwindfunclet$?ReadAsBinary@KeyValues@@QAE_NAAVCUtlBuffer@@@Z$1 1003f9fe f   tier1:KeyValues.obj
 0001:0003ea0c       __ehhandler$?ReadAsBinary@KeyValues@@QAE_NAAVCUtlBuffer@@@Z 1003fa0c f   tier1:KeyValues.obj
 0001:0003ea40       __unwindfunclet$??1?$CUtlVector@PAVKeyValues@@V?$CUtlMemory@PAVKeyValues@@@@@@QAE@XZ$0 1003fa40 f   tier1:KeyValues.obj
 0001:0003ea48       __ehhandler$??1?$CUtlVector@PAVKeyValues@@V?$CUtlMemory@PAVKeyValues@@@@@@QAE@XZ 1003fa48 f   tier1:KeyValues.obj
 0001:0003ea70       __unwindfunclet$?ParseIncludedKeys@KeyValues@@AAEXPBD0PAVIBaseFileSystem@@0AAV?$CUtlVector@PAVKeyValues@@V?$CUtlMemory@PAVKeyValues@@@@@@@Z$0 1003fa70 f   tier1:KeyValues.obj
 0001:0003ea7e       __ehhandler$?ParseIncludedKeys@KeyValues@@AAEXPBD0PAVIBaseFileSystem@@0AAV?$CUtlVector@PAVKeyValues@@V?$CUtlMemory@PAVKeyValues@@@@@@@Z 1003fa7e f   tier1:KeyValues.obj
 0001:0003eab0       __unwindfunclet$?LoadFromBuffer@KeyValues@@QAE_NPBDAAVCUtlBuffer@@PAVIBaseFileSystem@@0@Z$0 1003fab0 f   tier1:KeyValues.obj
 0001:0003eab8       __unwindfunclet$?LoadFromBuffer@KeyValues@@QAE_NPBDAAVCUtlBuffer@@PAVIBaseFileSystem@@0@Z$1 1003fab8 f   tier1:KeyValues.obj
 0001:0003eac3       __unwindfunclet$?LoadFromBuffer@KeyValues@@QAE_NPBDAAVCUtlBuffer@@PAVIBaseFileSystem@@0@Z$3 1003fac3 f   tier1:KeyValues.obj
 0001:0003eacb       __ehhandler$?LoadFromBuffer@KeyValues@@QAE_NPBDAAVCUtlBuffer@@PAVIBaseFileSystem@@0@Z 1003facb f   tier1:KeyValues.obj
 0001:0003eaf0       __unwindfunclet$?LoadFromBuffer@KeyValues@@QAE_NPBD0PAVIBaseFileSystem@@0@Z$0 1003faf0 f   tier1:KeyValues.obj
 0001:0003eaf8       __ehhandler$?LoadFromBuffer@KeyValues@@QAE_NPBD0PAVIBaseFileSystem@@0@Z 1003faf8 f   tier1:KeyValues.obj
 0001:0003eb20       __unwindfunclet$??0CUtlBuffer@@QAE@HHH@Z$0 1003fb20 f   tier1:utlbuffer.obj
 0001:0003eb28       __ehhandler$??0CUtlBuffer@@QAE@HHH@Z 1003fb28 f   tier1:utlbuffer.obj
 0001:0003eb50       __unwindfunclet$??0CUtlBuffer@@QAE@PBXHH@Z$0 1003fb50 f   tier1:utlbuffer.obj
 0001:0003eb58       __ehhandler$??0CUtlBuffer@@QAE@PBXHH@Z 1003fb58 f   tier1:utlbuffer.obj
 0001:0003eb73       __ehhandler$?CallUnexpected@@YAXPBU_s_ESTypeList@@@Z 1003fb73 f   LIBCMT:frame.obj
 0001:0003eb90       ??__Ebot_forcefireweapon@@YAXXZ 1003fb90 f   serverplugin_bot.obj
 0001:0003ebc0       ??__Ebot_forceattack2@@YAXXZ 1003fbc0 f   serverplugin_bot.obj
 0001:0003ebf0       ??__Ebot_forceattackon@@YAXXZ 1003fbf0 f   serverplugin_bot.obj
 0001:0003ec20       ??__Ebot_flipout@@YAXXZ    1003fc20 f   serverplugin_bot.obj
 0001:0003ec50       ??__Ebot_changeclass@@YAXXZ 1003fc50 f   serverplugin_bot.obj
 0001:0003ec80       ??__Ebot_mimic@@YAXXZ      1003fc80 f   serverplugin_bot.obj
 0001:0003ecb0       ??__Ebot_mimic_yaw_offset@@YAXXZ 1003fcb0 f   serverplugin_bot.obj
 0001:0003ece0       ??__Ebot_sendcmd@@YAXXZ    1003fce0 f   serverplugin_bot.obj
 0001:0003ed10       ??__Ebot_crouch@@YAXXZ     1003fd10 f   serverplugin_bot.obj
 0001:0003ed40       ??__Es_Bots@@YAXXZ         1003fd40 f   serverplugin_bot.obj
 0001:0003ed50       ??__Ecc_Bot@@YAXXZ         1003fd50 f   serverplugin_bot.obj
 0001:0003ed80       ??__Eg_EmtpyServerPlugin@@YAXXZ 1003fd80 f   serverplugin_empty.obj
 0001:0003ed90       ??__E__g_CreateCEmptyServerPluginIServerPluginCallbacks_reg@@YAXXZ 1003fd90 f   serverplugin_empty.obj
 0001:0003edb0       ??__Eempty_version_command@@YAXXZ 1003fdb0 f   serverplugin_empty.obj
 0001:0003ede0       ??__Eempty_log_command@@YAXXZ 1003fde0 f   serverplugin_empty.obj
 0001:0003ee10       ??__Eempty_cvar@@YAXXZ     1003fe10 f   serverplugin_empty.obj
 0001:0003ee40       ??__Es_StringCharConversion@@YAXXZ 1003fe40 f   tier1:utlbuffer.obj
 0001:0003eea0       ??__Es_NoEscConversion@@YAXXZ 1003fea0 f   tier1:utlbuffer.obj
 0001:0003eed0       ??__Fbot_forcefireweapon@@YAXXZ 1003fed0 f   serverplugin_bot.obj
 0001:0003eee0       ??__Fbot_forceattack2@@YAXXZ 1003fee0 f   serverplugin_bot.obj
 0001:0003eef0       ??__Fbot_forceattackon@@YAXXZ 1003fef0 f   serverplugin_bot.obj
 0001:0003ef00       ??__Fbot_flipout@@YAXXZ    1003ff00 f   serverplugin_bot.obj
 0001:0003ef10       ??__Fbot_changeclass@@YAXXZ 1003ff10 f   serverplugin_bot.obj
 0001:0003ef20       ??__Fbot_mimic@@YAXXZ      1003ff20 f   serverplugin_bot.obj
 0001:0003ef30       ??__Fbot_mimic_yaw_offset@@YAXXZ 1003ff30 f   serverplugin_bot.obj
 0001:0003ef40       ??__Fbot_sendcmd@@YAXXZ    1003ff40 f   serverplugin_bot.obj
 0001:0003ef50       ??__Fbot_crouch@@YAXXZ     1003ff50 f   serverplugin_bot.obj
 0001:0003ef60       ??__Fcc_Bot@@YAXXZ         1003ff60 f   serverplugin_bot.obj
 0001:0003ef70       ??__Fs_Bots@@YAXXZ         1003ff70 f   serverplugin_bot.obj
 0001:0003f010       ??__Fempty_version_command@@YAXXZ 10040010 f   serverplugin_empty.obj
 0001:0003f020       ??__Fempty_log_command@@YAXXZ 10040020 f   serverplugin_empty.obj
 0001:0003f030       ??__Fempty_cvar@@YAXXZ     10040030 f   serverplugin_empty.obj
 0001:0003f040       ??__Fg_EmtpyServerPlugin@@YAXXZ 10040040 f   serverplugin_empty.obj
